GAS LISTING C:\Users\Piotrek\AppData\Local\Temp\cc9LOeNg.s 			page 1


   1              		.file	1 "unity.c"
   2              		.section .mdebug.abi32
   3              		.previous
   4              		.gnu_attribute 4, 4
   5              	
   6              		.comm	Unity,232,8
   7              		.globl	UnityStrOk
   8              		.section	.rodata,code
   9              		.align	2
  10              		.type	UnityStrOk, @object
  11              		.size	UnityStrOk, 3
  12              	UnityStrOk:
  13 0000 4F4B00   		.ascii	"OK\000"
  14              		.globl	UnityStrPass
  15 0003 00       		.align	2
  16              		.type	UnityStrPass, @object
  17              		.size	UnityStrPass, 5
  18              	UnityStrPass:
  19 0004 50415353 		.ascii	"PASS\000"
  19      00
  20              		.globl	UnityStrFail
  21 0009 000000   		.align	2
  22              		.type	UnityStrFail, @object
  23              		.size	UnityStrFail, 5
  24              	UnityStrFail:
  25 000c 4641494C 		.ascii	"FAIL\000"
  25      00
  26              		.globl	UnityStrIgnore
  27 0011 000000   		.align	2
  28              		.type	UnityStrIgnore, @object
  29              		.size	UnityStrIgnore, 7
  30              	UnityStrIgnore:
  31 0014 49474E4F 		.ascii	"IGNORE\000"
  31      524500
  32 001b 00       		.align	2
  33              		.type	UnityStrNull, @object
  34              		.size	UnityStrNull, 5
  35              	UnityStrNull:
  36 001c 4E554C4C 		.ascii	"NULL\000"
  36      00
  37 0021 000000   		.align	2
  38              		.type	UnityStrSpacer, @object
  39              		.size	UnityStrSpacer, 3
  40              	UnityStrSpacer:
  41 0024 2E2000   		.ascii	". \000"
  42 0027 00       		.align	2
  43              		.type	UnityStrExpected, @object
  44              		.size	UnityStrExpected, 11
  45              	UnityStrExpected:
  46 0028 20457870 		.ascii	" Expected \000"
  46      65637465 
  46      642000
  47 0033 00       		.align	2
  48              		.type	UnityStrWas, @object
  49              		.size	UnityStrWas, 6
  50              	UnityStrWas:
  51 0034 20576173 		.ascii	" Was \000"
GAS LISTING C:\Users\Piotrek\AppData\Local\Temp\cc9LOeNg.s 			page 2


  51      2000
  52 003a 0000     		.align	2
  53              		.type	UnityStrGt, @object
  54              		.size	UnityStrGt, 21
  55              	UnityStrGt:
  56 003c 20746F20 		.ascii	" to be greater than \000"
  56      62652067 
  56      72656174 
  56      65722074 
  56      68616E20 
  57 0051 000000   		.align	2
  58              		.type	UnityStrLt, @object
  59              		.size	UnityStrLt, 18
  60              	UnityStrLt:
  61 0054 20746F20 		.ascii	" to be less than \000"
  61      6265206C 
  61      65737320 
  61      7468616E 
  61      2000
  62 0066 0000     		.align	2
  63              		.type	UnityStrOrEqual, @object
  64              		.size	UnityStrOrEqual, 13
  65              	UnityStrOrEqual:
  66 0068 6F722065 		.ascii	"or equal to \000"
  66      7175616C 
  66      20746F20 
  66      00
  67 0075 000000   		.align	2
  68              		.type	UnityStrNotEqual, @object
  69              		.size	UnityStrNotEqual, 21
  70              	UnityStrNotEqual:
  71 0078 20746F20 		.ascii	" to be not equal to \000"
  71      6265206E 
  71      6F742065 
  71      7175616C 
  71      20746F20 
  72 008d 000000   		.align	2
  73              		.type	UnityStrElement, @object
  74              		.size	UnityStrElement, 10
  75              	UnityStrElement:
  76 0090 20456C65 		.ascii	" Element \000"
  76      6D656E74 
  76      2000
  77 009a 0000     		.align	2
  78              		.type	UnityStrByte, @object
  79              		.size	UnityStrByte, 7
  80              	UnityStrByte:
  81 009c 20427974 		.ascii	" Byte \000"
  81      652000
  82 00a3 00       		.align	2
  83              		.type	UnityStrMemory, @object
  84              		.size	UnityStrMemory, 18
  85              	UnityStrMemory:
  86 00a4 204D656D 		.ascii	" Memory Mismatch.\000"
  86      6F727920 
  86      4D69736D 
  86      61746368 
GAS LISTING C:\Users\Piotrek\AppData\Local\Temp\cc9LOeNg.s 			page 3


  86      2E00
  87 00b6 0000     		.align	2
  88              		.type	UnityStrDelta, @object
  89              		.size	UnityStrDelta, 26
  90              	UnityStrDelta:
  91 00b8 2056616C 		.ascii	" Values Not Within Delta \000"
  91      75657320 
  91      4E6F7420 
  91      57697468 
  91      696E2044 
  92 00d2 0000     		.align	2
  93              		.type	UnityStrPointless, @object
  94              		.size	UnityStrPointless, 55
  95              	UnityStrPointless:
  96 00d4 20596F75 		.ascii	" You Asked Me To Compare Nothing, Which Was Pointless.\000"
  96      2041736B 
  96      6564204D 
  96      6520546F 
  96      20436F6D 
  97 010b 00       		.align	2
  98              		.type	UnityStrNullPointerForExpected, @object
  99              		.size	UnityStrNullPointerForExpected, 29
 100              	UnityStrNullPointerForExpected:
 101 010c 20457870 		.ascii	" Expected pointer to be NULL\000"
 101      65637465 
 101      6420706F 
 101      696E7465 
 101      7220746F 
 102 0129 000000   		.align	2
 103              		.type	UnityStrNullPointerForActual, @object
 104              		.size	UnityStrNullPointerForActual, 25
 105              	UnityStrNullPointerForActual:
 106 012c 20416374 		.ascii	" Actual pointer was NULL\000"
 106      75616C20 
 106      706F696E 
 106      74657220 
 106      77617320 
 107 0145 000000   		.align	2
 108              		.type	UnityStrNot, @object
 109              		.size	UnityStrNot, 5
 110              	UnityStrNot:
 111 0148 4E6F7420 		.ascii	"Not \000"
 111      00
 112 014d 000000   		.align	2
 113              		.type	UnityStrInf, @object
 114              		.size	UnityStrInf, 9
 115              	UnityStrInf:
 116 0150 496E6669 		.ascii	"Infinity\000"
 116      6E697479 
 116      00
 117 0159 000000   		.align	2
 118              		.type	UnityStrNegInf, @object
 119              		.size	UnityStrNegInf, 18
 120              	UnityStrNegInf:
 121 015c 4E656761 		.ascii	"Negative Infinity\000"
 121      74697665 
 121      20496E66 
GAS LISTING C:\Users\Piotrek\AppData\Local\Temp\cc9LOeNg.s 			page 4


 121      696E6974 
 121      7900
 122 016e 0000     		.align	2
 123              		.type	UnityStrNaN, @object
 124              		.size	UnityStrNaN, 4
 125              	UnityStrNaN:
 126 0170 4E614E00 		.ascii	"NaN\000"
 127              		.align	2
 128              		.type	UnityStrDet, @object
 129              		.size	UnityStrDet, 12
 130              	UnityStrDet:
 131 0174 44657465 		.ascii	"Determinate\000"
 131      726D696E 
 131      61746500 
 132              		.align	2
 133              		.type	UnityStrInvalidFloatTrait, @object
 134              		.size	UnityStrInvalidFloatTrait, 20
 135              	UnityStrInvalidFloatTrait:
 136 0180 496E7661 		.ascii	"Invalid Float Trait\000"
 136      6C696420 
 136      466C6F61 
 136      74205472 
 136      61697400 
 137              		.globl	UnityStrErrShorthand
 138              		.align	2
 139              		.type	UnityStrErrShorthand, @object
 140              		.size	UnityStrErrShorthand, 33
 141              	UnityStrErrShorthand:
 142 0194 556E6974 		.ascii	"Unity Shorthand Support Disabled\000"
 142      79205368 
 142      6F727468 
 142      616E6420 
 142      53757070 
 143              		.globl	UnityStrErrFloat
 144 01b5 000000   		.align	2
 145              		.type	UnityStrErrFloat, @object
 146              		.size	UnityStrErrFloat, 30
 147              	UnityStrErrFloat:
 148 01b8 556E6974 		.ascii	"Unity Floating Point Disabled\000"
 148      7920466C 
 148      6F617469 
 148      6E672050 
 148      6F696E74 
 149              		.globl	UnityStrErrDouble
 150 01d6 0000     		.align	2
 151              		.type	UnityStrErrDouble, @object
 152              		.size	UnityStrErrDouble, 32
 153              	UnityStrErrDouble:
 154 01d8 556E6974 		.ascii	"Unity Double Precision Disabled\000"
 154      7920446F 
 154      75626C65 
 154      20507265 
 154      63697369 
 155              		.globl	UnityStrErr64
 156              		.align	2
 157              		.type	UnityStrErr64, @object
 158              		.size	UnityStrErr64, 30
GAS LISTING C:\Users\Piotrek\AppData\Local\Temp\cc9LOeNg.s 			page 5


 159              	UnityStrErr64:
 160 01f8 556E6974 		.ascii	"Unity 64-bit Support Disabled\000"
 160      79203634 
 160      2D626974 
 160      20537570 
 160      706F7274 
 161 0216 0000     		.align	2
 162              		.type	UnityStrBreaker, @object
 163              		.size	UnityStrBreaker, 24
 164              	UnityStrBreaker:
 165 0218 2D2D2D2D 		.ascii	"-----------------------\000"
 165      2D2D2D2D 
 165      2D2D2D2D 
 165      2D2D2D2D 
 165      2D2D2D2D 
 166              		.align	2
 167              		.type	UnityStrResultsTests, @object
 168              		.size	UnityStrResultsTests, 8
 169              	UnityStrResultsTests:
 170 0230 20546573 		.ascii	" Tests \000"
 170      74732000 
 171              		.align	2
 172              		.type	UnityStrResultsFailures, @object
 173              		.size	UnityStrResultsFailures, 11
 174              	UnityStrResultsFailures:
 175 0238 20466169 		.ascii	" Failures \000"
 175      6C757265 
 175      732000
 176 0243 00       		.align	2
 177              		.type	UnityStrResultsIgnored, @object
 178              		.size	UnityStrResultsIgnored, 10
 179              	UnityStrResultsIgnored:
 180 0244 2049676E 		.ascii	" Ignored \000"
 180      6F726564 
 180      2000
 181 024e 0000     		.align	2
 182              		.type	UnityStrDetail1Name, @object
 183              		.size	UnityStrDetail1Name, 10
 184              	UnityStrDetail1Name:
 185 0250 46756E63 		.ascii	"Function \000"
 185      74696F6E 
 185      2000
 186 025a 0000     		.align	2
 187              		.type	UnityStrDetail2Name, @object
 188              		.size	UnityStrDetail2Name, 11
 189              	UnityStrDetail2Name:
 190 025c 20417267 		.ascii	" Argument \000"
 190      756D656E 
 190      742000
 191              		.section	.text,code
 192              		.align	2
 193              		.set	nomips16
 194              		.set	nomicromips
 195              		.ent	UnityPrintChar
 196              		.type	UnityPrintChar, @function
 197              	UnityPrintChar:
 198              		.frame	$fp,24,$31		# vars= 0, regs= 2/0, args= 16, gp= 0
GAS LISTING C:\Users\Piotrek\AppData\Local\Temp\cc9LOeNg.s 			page 6


 199              		.mask	0xc0000000,-4
 200              		.fmask	0x00000000,0
 201              		.set	noreorder
 202              		.set	nomacro
 203              	# End mchp_output_function_prologue
 204 0000 E8FFBD27 		addiu	$sp,$sp,-24
 205 0004 1400BFAF 		sw	$31,20($sp)
 206 0008 1000BEAF 		sw	$fp,16($sp)
 207 000c 21F0A003 		move	$fp,$sp
 208 0010 1800C4AF 		sw	$4,24($fp)
 209 0014 1800C28F 		lw	$2,24($fp)
 210 0018 00004380 		lb	$3,0($2)
 211 001c 7F000224 		li	$2,127			# 0x7f
 212 0020 11006210 		beq	$3,$2,.L2
 213 0024 00000000 		nop
 214              	
 215 0028 1800C28F 		lw	$2,24($fp)
 216 002c 00004280 		lb	$2,0($2)
 217 0030 20004228 		slt	$2,$2,32
 218 0034 0C004014 		bne	$2,$0,.L2
 219 0038 00000000 		nop
 220              	
 221 003c 1800C28F 		lw	$2,24($fp)
 222 0040 00004280 		lb	$2,0($2)
 223 0044 21184000 		move	$3,$2
 224 0048 0000828F 		lw	$2,%gp_rel(_libc_data)($28)
 225 004c 0400428C 		lw	$2,4($2)
 226 0050 21206000 		move	$4,$3
 227 0054 21284000 		move	$5,$2
 228 0058 0000000C 		jal	fputc
 229 005c 00000000 		nop
 230              	
 231 0060 52000008 		j	.L1
 232 0064 00000000 		nop
 233              	
 234              	.L2:
 235 0068 1800C28F 		lw	$2,24($fp)
 236 006c 00004380 		lb	$3,0($2)
 237 0070 0D000224 		li	$2,13			# 0xd
 238 0074 0F006214 		bne	$3,$2,.L4
 239 0078 00000000 		nop
 240              	
 241 007c 0000828F 		lw	$2,%gp_rel(_libc_data)($28)
 242 0080 0400428C 		lw	$2,4($2)
 243 0084 5C000424 		li	$4,92			# 0x5c
 244 0088 21284000 		move	$5,$2
 245 008c 0000000C 		jal	fputc
 246 0090 00000000 		nop
 247              	
 248 0094 0000828F 		lw	$2,%gp_rel(_libc_data)($28)
 249 0098 0400428C 		lw	$2,4($2)
 250 009c 72000424 		li	$4,114			# 0x72
 251 00a0 21284000 		move	$5,$2
 252 00a4 0000000C 		jal	fputc
 253 00a8 00000000 		nop
 254              	
 255 00ac 52000008 		j	.L1
GAS LISTING C:\Users\Piotrek\AppData\Local\Temp\cc9LOeNg.s 			page 7


 256 00b0 00000000 		nop
 257              	
 258              	.L4:
 259 00b4 1800C28F 		lw	$2,24($fp)
 260 00b8 00004380 		lb	$3,0($2)
 261 00bc 0A000224 		li	$2,10			# 0xa
 262 00c0 0F006214 		bne	$3,$2,.L5
 263 00c4 00000000 		nop
 264              	
 265 00c8 0000828F 		lw	$2,%gp_rel(_libc_data)($28)
 266 00cc 0400428C 		lw	$2,4($2)
 267 00d0 5C000424 		li	$4,92			# 0x5c
 268 00d4 21284000 		move	$5,$2
 269 00d8 0000000C 		jal	fputc
 270 00dc 00000000 		nop
 271              	
 272 00e0 0000828F 		lw	$2,%gp_rel(_libc_data)($28)
 273 00e4 0400428C 		lw	$2,4($2)
 274 00e8 6E000424 		li	$4,110			# 0x6e
 275 00ec 21284000 		move	$5,$2
 276 00f0 0000000C 		jal	fputc
 277 00f4 00000000 		nop
 278              	
 279 00f8 52000008 		j	.L1
 280 00fc 00000000 		nop
 281              	
 282              	.L5:
 283 0100 0000828F 		lw	$2,%gp_rel(_libc_data)($28)
 284 0104 0400428C 		lw	$2,4($2)
 285 0108 5C000424 		li	$4,92			# 0x5c
 286 010c 21284000 		move	$5,$2
 287 0110 0000000C 		jal	fputc
 288 0114 00000000 		nop
 289              	
 290 0118 0000828F 		lw	$2,%gp_rel(_libc_data)($28)
 291 011c 0400428C 		lw	$2,4($2)
 292 0120 78000424 		li	$4,120			# 0x78
 293 0124 21284000 		move	$5,$2
 294 0128 0000000C 		jal	fputc
 295 012c 00000000 		nop
 296              	
 297 0130 1800C28F 		lw	$2,24($fp)
 298 0134 00004280 		lb	$2,0($2)
 299 0138 21204000 		move	$4,$2
 300 013c 02000524 		li	$5,2			# 0x2
 301 0140 0000000C 		jal	UnityPrintNumberHex
 302 0144 00000000 		nop
 303              	
 304              	.L1:
 305 0148 21E8C003 		move	$sp,$fp
 306 014c 1400BF8F 		lw	$31,20($sp)
 307 0150 1000BE8F 		lw	$fp,16($sp)
 308 0154 1800BD27 		addiu	$sp,$sp,24
 309 0158 0800E003 		j	$31
 310 015c 00000000 		nop
 311              	
 312              		.set	macro
GAS LISTING C:\Users\Piotrek\AppData\Local\Temp\cc9LOeNg.s 			page 8


 313              		.set	reorder
 314              	# Begin mchp_output_function_epilogue
 315              	# End mchp_output_function_epilogue
 316              		.end	UnityPrintChar
 317              		.size	UnityPrintChar, .-UnityPrintChar
 318              		.align	2
 319              		.globl	UnityPrint
 320              		.set	nomips16
 321              		.set	nomicromips
 322              		.ent	UnityPrint
 323              		.type	UnityPrint, @function
 324              	UnityPrint:
 325              		.frame	$fp,32,$31		# vars= 8, regs= 2/0, args= 16, gp= 0
 326              		.mask	0xc0000000,-4
 327              		.fmask	0x00000000,0
 328              		.set	noreorder
 329              		.set	nomacro
 330              	# End mchp_output_function_prologue
 331 0160 E0FFBD27 		addiu	$sp,$sp,-32
 332 0164 1C00BFAF 		sw	$31,28($sp)
 333 0168 1800BEAF 		sw	$fp,24($sp)
 334 016c 21F0A003 		move	$fp,$sp
 335 0170 2000C4AF 		sw	$4,32($fp)
 336 0174 2000C28F 		lw	$2,32($fp)
 337 0178 1000C2AF 		sw	$2,16($fp)
 338 017c 1000C28F 		lw	$2,16($fp)
 339 0180 0D004010 		beq	$2,$0,.L6
 340 0184 00000000 		nop
 341              	
 342 0188 6A000008 		j	.L8
 343 018c 00000000 		nop
 344              	
 345              	.L9:
 346 0190 1000C48F 		lw	$4,16($fp)
 347 0194 0000000C 		jal	UnityPrintChar
 348 0198 00000000 		nop
 349              	
 350 019c 1000C28F 		lw	$2,16($fp)
 351 01a0 01004224 		addiu	$2,$2,1
 352 01a4 1000C2AF 		sw	$2,16($fp)
 353              	.L8:
 354 01a8 1000C28F 		lw	$2,16($fp)
 355 01ac 00004280 		lb	$2,0($2)
 356 01b0 F7FF4014 		bne	$2,$0,.L9
 357 01b4 00000000 		nop
 358              	
 359              	.L6:
 360 01b8 21E8C003 		move	$sp,$fp
 361 01bc 1C00BF8F 		lw	$31,28($sp)
 362 01c0 1800BE8F 		lw	$fp,24($sp)
 363 01c4 2000BD27 		addiu	$sp,$sp,32
 364 01c8 0800E003 		j	$31
 365 01cc 00000000 		nop
 366              	
 367              		.set	macro
 368              		.set	reorder
 369              	# Begin mchp_output_function_epilogue
GAS LISTING C:\Users\Piotrek\AppData\Local\Temp\cc9LOeNg.s 			page 9


 370              	# End mchp_output_function_epilogue
 371              		.end	UnityPrint
 372              		.size	UnityPrint, .-UnityPrint
 373              		.align	2
 374              		.globl	UnityPrintLen
 375              		.set	nomips16
 376              		.set	nomicromips
 377              		.ent	UnityPrintLen
 378              		.type	UnityPrintLen, @function
 379              	UnityPrintLen:
 380              		.frame	$fp,32,$31		# vars= 8, regs= 2/0, args= 16, gp= 0
 381              		.mask	0xc0000000,-4
 382              		.fmask	0x00000000,0
 383              		.set	noreorder
 384              		.set	nomacro
 385              	# End mchp_output_function_prologue
 386 01d0 E0FFBD27 		addiu	$sp,$sp,-32
 387 01d4 1C00BFAF 		sw	$31,28($sp)
 388 01d8 1800BEAF 		sw	$fp,24($sp)
 389 01dc 21F0A003 		move	$fp,$sp
 390 01e0 2000C4AF 		sw	$4,32($fp)
 391 01e4 2400C5AF 		sw	$5,36($fp)
 392 01e8 2000C28F 		lw	$2,32($fp)
 393 01ec 1000C2AF 		sw	$2,16($fp)
 394 01f0 1000C28F 		lw	$2,16($fp)
 395 01f4 5F004010 		beq	$2,$0,.L10
 396 01f8 00000000 		nop
 397              	
 398 01fc D1000008 		j	.L12
 399 0200 00000000 		nop
 400              	
 401              	.L17:
 402 0204 1000C28F 		lw	$2,16($fp)
 403 0208 00004380 		lb	$3,0($2)
 404 020c 7F000224 		li	$2,127			# 0x7f
 405 0210 11006210 		beq	$3,$2,.L13
 406 0214 00000000 		nop
 407              	
 408 0218 1000C28F 		lw	$2,16($fp)
 409 021c 00004280 		lb	$2,0($2)
 410 0220 20004228 		slt	$2,$2,32
 411 0224 0C004014 		bne	$2,$0,.L13
 412 0228 00000000 		nop
 413              	
 414 022c 1000C28F 		lw	$2,16($fp)
 415 0230 00004280 		lb	$2,0($2)
 416 0234 21184000 		move	$3,$2
 417 0238 0000828F 		lw	$2,%gp_rel(_libc_data)($28)
 418 023c 0400428C 		lw	$2,4($2)
 419 0240 21206000 		move	$4,$3
 420 0244 21284000 		move	$5,$2
 421 0248 0000000C 		jal	fputc
 422 024c 00000000 		nop
 423              	
 424 0250 CE000008 		j	.L14
 425 0254 00000000 		nop
 426              	
GAS LISTING C:\Users\Piotrek\AppData\Local\Temp\cc9LOeNg.s 			page 10


 427              	.L13:
 428 0258 1000C28F 		lw	$2,16($fp)
 429 025c 00004380 		lb	$3,0($2)
 430 0260 0D000224 		li	$2,13			# 0xd
 431 0264 0F006214 		bne	$3,$2,.L15
 432 0268 00000000 		nop
 433              	
 434 026c 0000828F 		lw	$2,%gp_rel(_libc_data)($28)
 435 0270 0400428C 		lw	$2,4($2)
 436 0274 5C000424 		li	$4,92			# 0x5c
 437 0278 21284000 		move	$5,$2
 438 027c 0000000C 		jal	fputc
 439 0280 00000000 		nop
 440              	
 441 0284 0000828F 		lw	$2,%gp_rel(_libc_data)($28)
 442 0288 0400428C 		lw	$2,4($2)
 443 028c 72000424 		li	$4,114			# 0x72
 444 0290 21284000 		move	$5,$2
 445 0294 0000000C 		jal	fputc
 446 0298 00000000 		nop
 447              	
 448 029c CE000008 		j	.L14
 449 02a0 00000000 		nop
 450              	
 451              	.L15:
 452 02a4 1000C28F 		lw	$2,16($fp)
 453 02a8 00004380 		lb	$3,0($2)
 454 02ac 0A000224 		li	$2,10			# 0xa
 455 02b0 0F006214 		bne	$3,$2,.L16
 456 02b4 00000000 		nop
 457              	
 458 02b8 0000828F 		lw	$2,%gp_rel(_libc_data)($28)
 459 02bc 0400428C 		lw	$2,4($2)
 460 02c0 5C000424 		li	$4,92			# 0x5c
 461 02c4 21284000 		move	$5,$2
 462 02c8 0000000C 		jal	fputc
 463 02cc 00000000 		nop
 464              	
 465 02d0 0000828F 		lw	$2,%gp_rel(_libc_data)($28)
 466 02d4 0400428C 		lw	$2,4($2)
 467 02d8 6E000424 		li	$4,110			# 0x6e
 468 02dc 21284000 		move	$5,$2
 469 02e0 0000000C 		jal	fputc
 470 02e4 00000000 		nop
 471              	
 472 02e8 CE000008 		j	.L14
 473 02ec 00000000 		nop
 474              	
 475              	.L16:
 476 02f0 0000828F 		lw	$2,%gp_rel(_libc_data)($28)
 477 02f4 0400428C 		lw	$2,4($2)
 478 02f8 5C000424 		li	$4,92			# 0x5c
 479 02fc 21284000 		move	$5,$2
 480 0300 0000000C 		jal	fputc
 481 0304 00000000 		nop
 482              	
 483 0308 0000828F 		lw	$2,%gp_rel(_libc_data)($28)
GAS LISTING C:\Users\Piotrek\AppData\Local\Temp\cc9LOeNg.s 			page 11


 484 030c 0400428C 		lw	$2,4($2)
 485 0310 78000424 		li	$4,120			# 0x78
 486 0314 21284000 		move	$5,$2
 487 0318 0000000C 		jal	fputc
 488 031c 00000000 		nop
 489              	
 490 0320 1000C28F 		lw	$2,16($fp)
 491 0324 00004280 		lb	$2,0($2)
 492 0328 21204000 		move	$4,$2
 493 032c 02000524 		li	$5,2			# 0x2
 494 0330 0000000C 		jal	UnityPrintNumberHex
 495 0334 00000000 		nop
 496              	
 497              	.L14:
 498 0338 1000C28F 		lw	$2,16($fp)
 499 033c 01004224 		addiu	$2,$2,1
 500 0340 1000C2AF 		sw	$2,16($fp)
 501              	.L12:
 502 0344 1000C28F 		lw	$2,16($fp)
 503 0348 00004280 		lb	$2,0($2)
 504 034c 09004010 		beq	$2,$0,.L10
 505 0350 00000000 		nop
 506              	
 507 0354 1000C38F 		lw	$3,16($fp)
 508 0358 2000C28F 		lw	$2,32($fp)
 509 035c 23106200 		subu	$2,$3,$2
 510 0360 21184000 		move	$3,$2
 511 0364 2400C28F 		lw	$2,36($fp)
 512 0368 2B106200 		sltu	$2,$3,$2
 513 036c A5FF4014 		bne	$2,$0,.L17
 514 0370 00000000 		nop
 515              	
 516              	.L10:
 517 0374 21E8C003 		move	$sp,$fp
 518 0378 1C00BF8F 		lw	$31,28($sp)
 519 037c 1800BE8F 		lw	$fp,24($sp)
 520 0380 2000BD27 		addiu	$sp,$sp,32
 521 0384 0800E003 		j	$31
 522 0388 00000000 		nop
 523              	
 524              		.set	macro
 525              		.set	reorder
 526              	# Begin mchp_output_function_epilogue
 527              	# End mchp_output_function_epilogue
 528              		.end	UnityPrintLen
 529              		.size	UnityPrintLen, .-UnityPrintLen
 530              		.align	2
 531              		.globl	UnityPrintNumberByStyle
 532              		.set	nomips16
 533              		.set	nomicromips
 534              		.ent	UnityPrintNumberByStyle
 535              		.type	UnityPrintNumberByStyle, @function
 536              	UnityPrintNumberByStyle:
 537              		.frame	$fp,24,$31		# vars= 0, regs= 2/0, args= 16, gp= 0
 538              		.mask	0xc0000000,-4
 539              		.fmask	0x00000000,0
 540              		.set	noreorder
GAS LISTING C:\Users\Piotrek\AppData\Local\Temp\cc9LOeNg.s 			page 12


 541              		.set	nomacro
 542              	# End mchp_output_function_prologue
 543 038c E8FFBD27 		addiu	$sp,$sp,-24
 544 0390 1400BFAF 		sw	$31,20($sp)
 545 0394 1000BEAF 		sw	$fp,16($sp)
 546 0398 21F0A003 		move	$fp,$sp
 547 039c 1800C4AF 		sw	$4,24($fp)
 548 03a0 1C00C5AF 		sw	$5,28($fp)
 549 03a4 1C00C28F 		lw	$2,28($fp)
 550 03a8 10004230 		andi	$2,$2,0x10
 551 03ac 5D004010 		beq	$2,$0,.L19
 552 03b0 00000000 		nop
 553              	
 554 03b4 1C00C38F 		lw	$3,28($fp)
 555 03b8 91000224 		li	$2,145			# 0x91
 556 03bc 54006214 		bne	$3,$2,.L20
 557 03c0 00000000 		nop
 558              	
 559 03c4 0000828F 		lw	$2,%gp_rel(_libc_data)($28)
 560 03c8 0400428C 		lw	$2,4($2)
 561 03cc 27000424 		li	$4,39			# 0x27
 562 03d0 21284000 		move	$5,$2
 563 03d4 0000000C 		jal	fputc
 564 03d8 00000000 		nop
 565              	
 566 03dc 1800C28F 		lw	$2,24($fp)
 567 03e0 7F004228 		slt	$2,$2,127
 568 03e4 0D004010 		beq	$2,$0,.L21
 569 03e8 00000000 		nop
 570              	
 571 03ec 1800C28F 		lw	$2,24($fp)
 572 03f0 20004228 		slt	$2,$2,32
 573 03f4 09004014 		bne	$2,$0,.L21
 574 03f8 00000000 		nop
 575              	
 576 03fc 0000828F 		lw	$2,%gp_rel(_libc_data)($28)
 577 0400 0400428C 		lw	$2,4($2)
 578 0404 1800C48F 		lw	$4,24($fp)
 579 0408 21284000 		move	$5,$2
 580 040c 0000000C 		jal	fputc
 581 0410 00000000 		nop
 582              	
 583 0414 3C010008 		j	.L22
 584 0418 00000000 		nop
 585              	
 586              	.L21:
 587 041c 1800C38F 		lw	$3,24($fp)
 588 0420 0D000224 		li	$2,13			# 0xd
 589 0424 0F006214 		bne	$3,$2,.L23
 590 0428 00000000 		nop
 591              	
 592 042c 0000828F 		lw	$2,%gp_rel(_libc_data)($28)
 593 0430 0400428C 		lw	$2,4($2)
 594 0434 5C000424 		li	$4,92			# 0x5c
 595 0438 21284000 		move	$5,$2
 596 043c 0000000C 		jal	fputc
 597 0440 00000000 		nop
GAS LISTING C:\Users\Piotrek\AppData\Local\Temp\cc9LOeNg.s 			page 13


 598              	
 599 0444 0000828F 		lw	$2,%gp_rel(_libc_data)($28)
 600 0448 0400428C 		lw	$2,4($2)
 601 044c 72000424 		li	$4,114			# 0x72
 602 0450 21284000 		move	$5,$2
 603 0454 0000000C 		jal	fputc
 604 0458 00000000 		nop
 605              	
 606 045c 3C010008 		j	.L22
 607 0460 00000000 		nop
 608              	
 609              	.L23:
 610 0464 1800C38F 		lw	$3,24($fp)
 611 0468 0A000224 		li	$2,10			# 0xa
 612 046c 0F006214 		bne	$3,$2,.L24
 613 0470 00000000 		nop
 614              	
 615 0474 0000828F 		lw	$2,%gp_rel(_libc_data)($28)
 616 0478 0400428C 		lw	$2,4($2)
 617 047c 5C000424 		li	$4,92			# 0x5c
 618 0480 21284000 		move	$5,$2
 619 0484 0000000C 		jal	fputc
 620 0488 00000000 		nop
 621              	
 622 048c 0000828F 		lw	$2,%gp_rel(_libc_data)($28)
 623 0490 0400428C 		lw	$2,4($2)
 624 0494 6E000424 		li	$4,110			# 0x6e
 625 0498 21284000 		move	$5,$2
 626 049c 0000000C 		jal	fputc
 627 04a0 00000000 		nop
 628              	
 629 04a4 3C010008 		j	.L22
 630 04a8 00000000 		nop
 631              	
 632              	.L24:
 633 04ac 0000828F 		lw	$2,%gp_rel(_libc_data)($28)
 634 04b0 0400428C 		lw	$2,4($2)
 635 04b4 5C000424 		li	$4,92			# 0x5c
 636 04b8 21284000 		move	$5,$2
 637 04bc 0000000C 		jal	fputc
 638 04c0 00000000 		nop
 639              	
 640 04c4 0000828F 		lw	$2,%gp_rel(_libc_data)($28)
 641 04c8 0400428C 		lw	$2,4($2)
 642 04cc 78000424 		li	$4,120			# 0x78
 643 04d0 21284000 		move	$5,$2
 644 04d4 0000000C 		jal	fputc
 645 04d8 00000000 		nop
 646              	
 647 04dc 1800C28F 		lw	$2,24($fp)
 648 04e0 21204000 		move	$4,$2
 649 04e4 02000524 		li	$5,2			# 0x2
 650 04e8 0000000C 		jal	UnityPrintNumberHex
 651 04ec 00000000 		nop
 652              	
 653              	.L22:
 654 04f0 0000828F 		lw	$2,%gp_rel(_libc_data)($28)
GAS LISTING C:\Users\Piotrek\AppData\Local\Temp\cc9LOeNg.s 			page 14


 655 04f4 0400428C 		lw	$2,4($2)
 656 04f8 27000424 		li	$4,39			# 0x27
 657 04fc 21284000 		move	$5,$2
 658 0500 0000000C 		jal	fputc
 659 0504 00000000 		nop
 660              	
 661 0508 6B010008 		j	.L18
 662 050c 00000000 		nop
 663              	
 664              	.L20:
 665 0510 1800C48F 		lw	$4,24($fp)
 666 0514 0000000C 		jal	UnityPrintNumber
 667 0518 00000000 		nop
 668              	
 669 051c 6B010008 		j	.L18
 670 0520 00000000 		nop
 671              	
 672              	.L19:
 673 0524 1C00C28F 		lw	$2,28($fp)
 674 0528 20004230 		andi	$2,$2,0x20
 675 052c 07004010 		beq	$2,$0,.L27
 676 0530 00000000 		nop
 677              	
 678 0534 1800C28F 		lw	$2,24($fp)
 679 0538 21204000 		move	$4,$2
 680 053c 0000000C 		jal	UnityPrintNumberUnsigned
 681 0540 00000000 		nop
 682              	
 683 0544 6B010008 		j	.L18
 684 0548 00000000 		nop
 685              	
 686              	.L27:
 687 054c 0000828F 		lw	$2,%gp_rel(_libc_data)($28)
 688 0550 0400428C 		lw	$2,4($2)
 689 0554 30000424 		li	$4,48			# 0x30
 690 0558 21284000 		move	$5,$2
 691 055c 0000000C 		jal	fputc
 692 0560 00000000 		nop
 693              	
 694 0564 0000828F 		lw	$2,%gp_rel(_libc_data)($28)
 695 0568 0400428C 		lw	$2,4($2)
 696 056c 78000424 		li	$4,120			# 0x78
 697 0570 21284000 		move	$5,$2
 698 0574 0000000C 		jal	fputc
 699 0578 00000000 		nop
 700              	
 701 057c 1800C38F 		lw	$3,24($fp)
 702 0580 1C00C28F 		lw	$2,28($fp)
 703 0584 FF004230 		andi	$2,$2,0x00ff
 704 0588 0F004230 		andi	$2,$2,0xf
 705 058c FF004230 		andi	$2,$2,0x00ff
 706 0590 40100200 		sll	$2,$2,1
 707 0594 FF004230 		andi	$2,$2,0x00ff
 708 0598 2014027C 		seb	$2,$2
 709 059c 21206000 		move	$4,$3
 710 05a0 21284000 		move	$5,$2
 711 05a4 0000000C 		jal	UnityPrintNumberHex
GAS LISTING C:\Users\Piotrek\AppData\Local\Temp\cc9LOeNg.s 			page 15


 712 05a8 00000000 		nop
 713              	
 714              	.L18:
 715 05ac 21E8C003 		move	$sp,$fp
 716 05b0 1400BF8F 		lw	$31,20($sp)
 717 05b4 1000BE8F 		lw	$fp,16($sp)
 718 05b8 1800BD27 		addiu	$sp,$sp,24
 719 05bc 0800E003 		j	$31
 720 05c0 00000000 		nop
 721              	
 722              		.set	macro
 723              		.set	reorder
 724              	# Begin mchp_output_function_epilogue
 725              	# End mchp_output_function_epilogue
 726              		.end	UnityPrintNumberByStyle
 727              		.size	UnityPrintNumberByStyle, .-UnityPrintNumberByStyle
 728              		.align	2
 729              		.globl	UnityPrintNumber
 730              		.set	nomips16
 731              		.set	nomicromips
 732              		.ent	UnityPrintNumber
 733              		.type	UnityPrintNumber, @function
 734              	UnityPrintNumber:
 735              		.frame	$fp,32,$31		# vars= 8, regs= 2/0, args= 16, gp= 0
 736              		.mask	0xc0000000,-4
 737              		.fmask	0x00000000,0
 738              		.set	noreorder
 739              		.set	nomacro
 740              	# End mchp_output_function_prologue
 741 05c4 E0FFBD27 		addiu	$sp,$sp,-32
 742 05c8 1C00BFAF 		sw	$31,28($sp)
 743 05cc 1800BEAF 		sw	$fp,24($sp)
 744 05d0 21F0A003 		move	$fp,$sp
 745 05d4 2000C4AF 		sw	$4,32($fp)
 746 05d8 2000C28F 		lw	$2,32($fp)
 747 05dc 1000C2AF 		sw	$2,16($fp)
 748 05e0 2000C28F 		lw	$2,32($fp)
 749 05e4 0A004104 		bgez	$2,.L29
 750 05e8 00000000 		nop
 751              	
 752 05ec 0000828F 		lw	$2,%gp_rel(_libc_data)($28)
 753 05f0 0400428C 		lw	$2,4($2)
 754 05f4 2D000424 		li	$4,45			# 0x2d
 755 05f8 21284000 		move	$5,$2
 756 05fc 0000000C 		jal	fputc
 757 0600 00000000 		nop
 758              	
 759 0604 1000C28F 		lw	$2,16($fp)
 760 0608 23100200 		subu	$2,$0,$2
 761 060c 1000C2AF 		sw	$2,16($fp)
 762              	.L29:
 763 0610 1000C48F 		lw	$4,16($fp)
 764 0614 0000000C 		jal	UnityPrintNumberUnsigned
 765 0618 00000000 		nop
 766              	
 767 061c 21E8C003 		move	$sp,$fp
 768 0620 1C00BF8F 		lw	$31,28($sp)
GAS LISTING C:\Users\Piotrek\AppData\Local\Temp\cc9LOeNg.s 			page 16


 769 0624 1800BE8F 		lw	$fp,24($sp)
 770 0628 2000BD27 		addiu	$sp,$sp,32
 771 062c 0800E003 		j	$31
 772 0630 00000000 		nop
 773              	
 774              		.set	macro
 775              		.set	reorder
 776              	# Begin mchp_output_function_epilogue
 777              	# End mchp_output_function_epilogue
 778              		.end	UnityPrintNumber
 779              		.size	UnityPrintNumber, .-UnityPrintNumber
 780              		.align	2
 781              		.globl	UnityPrintNumberUnsigned
 782              		.set	nomips16
 783              		.set	nomicromips
 784              		.ent	UnityPrintNumberUnsigned
 785              		.type	UnityPrintNumberUnsigned, @function
 786              	UnityPrintNumberUnsigned:
 787              		.frame	$fp,32,$31		# vars= 8, regs= 2/0, args= 16, gp= 0
 788              		.mask	0xc0000000,-4
 789              		.fmask	0x00000000,0
 790              		.set	noreorder
 791              		.set	nomacro
 792              	# End mchp_output_function_prologue
 793 0634 E0FFBD27 		addiu	$sp,$sp,-32
 794 0638 1C00BFAF 		sw	$31,28($sp)
 795 063c 1800BEAF 		sw	$fp,24($sp)
 796 0640 21F0A003 		move	$fp,$sp
 797 0644 2000C4AF 		sw	$4,32($fp)
 798 0648 01000224 		li	$2,1			# 0x1
 799 064c 1000C2AF 		sw	$2,16($fp)
 800 0650 9B010008 		j	.L31
 801 0654 00000000 		nop
 802              	
 803              	.L32:
 804 0658 1000C28F 		lw	$2,16($fp)
 805 065c 40100200 		sll	$2,$2,1
 806 0660 80180200 		sll	$3,$2,2
 807 0664 21104300 		addu	$2,$2,$3
 808 0668 1000C2AF 		sw	$2,16($fp)
 809              	.L31:
 810 066c 2000C38F 		lw	$3,32($fp)
 811 0670 1000C28F 		lw	$2,16($fp)
 812 0674 1B006200 		divu	$0,$3,$2
 813 0678 F4014000 		teq	$2,$0,7
 814 067c 10100000 		mfhi	$2
 815 0680 12100000 		mflo	$2
 816 0684 0A00422C 		sltu	$2,$2,10
 817 0688 F3FF4010 		beq	$2,$0,.L32
 818 068c 00000000 		nop
 819              	
 820              	.L33:
 821 0690 2000C38F 		lw	$3,32($fp)
 822 0694 1000C28F 		lw	$2,16($fp)
 823 0698 1B006200 		divu	$0,$3,$2
 824 069c F4014000 		teq	$2,$0,7
 825 06a0 10100000 		mfhi	$2
GAS LISTING C:\Users\Piotrek\AppData\Local\Temp\cc9LOeNg.s 			page 17


 826 06a4 12180000 		mflo	$3
 827 06a8 CCCC023C 		li	$2,-859045888			# 0xffffffffcccc0000
 828 06ac CDCC4234 		ori	$2,$2,0xcccd
 829 06b0 19006200 		multu	$ac0,$3,$2
 830 06b4 10100000 		mfhi	$2
 831 06b8 C2100200 		srl	$2,$2,3
 832 06bc 40100200 		sll	$2,$2,1
 833 06c0 80200200 		sll	$4,$2,2
 834 06c4 21104400 		addu	$2,$2,$4
 835 06c8 23106200 		subu	$2,$3,$2
 836 06cc FF004230 		andi	$2,$2,0x00ff
 837 06d0 30004224 		addiu	$2,$2,48
 838 06d4 FF004230 		andi	$2,$2,0x00ff
 839 06d8 2014027C 		seb	$2,$2
 840 06dc 21184000 		move	$3,$2
 841 06e0 0000828F 		lw	$2,%gp_rel(_libc_data)($28)
 842 06e4 0400428C 		lw	$2,4($2)
 843 06e8 21206000 		move	$4,$3
 844 06ec 21284000 		move	$5,$2
 845 06f0 0000000C 		jal	fputc
 846 06f4 00000000 		nop
 847              	
 848 06f8 1000C38F 		lw	$3,16($fp)
 849 06fc CCCC023C 		li	$2,-859045888			# 0xffffffffcccc0000
 850 0700 CDCC4234 		ori	$2,$2,0xcccd
 851 0704 19006200 		multu	$ac0,$3,$2
 852 0708 10100000 		mfhi	$2
 853 070c C2100200 		srl	$2,$2,3
 854 0710 1000C2AF 		sw	$2,16($fp)
 855 0714 1000C28F 		lw	$2,16($fp)
 856 0718 DDFF4014 		bne	$2,$0,.L33
 857 071c 00000000 		nop
 858              	
 859 0720 21E8C003 		move	$sp,$fp
 860 0724 1C00BF8F 		lw	$31,28($sp)
 861 0728 1800BE8F 		lw	$fp,24($sp)
 862 072c 2000BD27 		addiu	$sp,$sp,32
 863 0730 0800E003 		j	$31
 864 0734 00000000 		nop
 865              	
 866              		.set	macro
 867              		.set	reorder
 868              	# Begin mchp_output_function_epilogue
 869              	# End mchp_output_function_epilogue
 870              		.end	UnityPrintNumberUnsigned
 871              		.size	UnityPrintNumberUnsigned, .-UnityPrintNumberUnsigned
 872              		.align	2
 873              		.globl	UnityPrintNumberHex
 874              		.set	nomips16
 875              		.set	nomicromips
 876              		.ent	UnityPrintNumberHex
 877              		.type	UnityPrintNumberHex, @function
 878              	UnityPrintNumberHex:
 879              		.frame	$fp,32,$31		# vars= 8, regs= 2/0, args= 16, gp= 0
 880              		.mask	0xc0000000,-4
 881              		.fmask	0x00000000,0
 882              		.set	noreorder
GAS LISTING C:\Users\Piotrek\AppData\Local\Temp\cc9LOeNg.s 			page 18


 883              		.set	nomacro
 884              	# End mchp_output_function_prologue
 885 0738 E0FFBD27 		addiu	$sp,$sp,-32
 886 073c 1C00BFAF 		sw	$31,28($sp)
 887 0740 1800BEAF 		sw	$fp,24($sp)
 888 0744 21F0A003 		move	$fp,$sp
 889 0748 2000C4AF 		sw	$4,32($fp)
 890 074c 2110A000 		move	$2,$5
 891 0750 2400C2A3 		sb	$2,36($fp)
 892 0754 2400C293 		lbu	$2,36($fp)
 893 0758 1000C2A3 		sb	$2,16($fp)
 894 075c 1000C293 		lbu	$2,16($fp)
 895 0760 0900422C 		sltu	$2,$2,9
 896 0764 05004014 		bne	$2,$0,.L35
 897 0768 00000000 		nop
 898              	
 899 076c 08000224 		li	$2,8			# 0x8
 900 0770 1000C2A3 		sb	$2,16($fp)
 901 0774 08020008 		j	.L36
 902 0778 00000000 		nop
 903              	
 904              	.L35:
 905 077c 08020008 		j	.L36
 906 0780 00000000 		nop
 907              	
 908              	.L38:
 909 0784 1000C283 		lb	$2,16($fp)
 910 0788 FFFF4224 		addiu	$2,$2,-1
 911 078c 1000C2A3 		sb	$2,16($fp)
 912 0790 1000C283 		lb	$2,16($fp)
 913 0794 80100200 		sll	$2,$2,2
 914 0798 2000C38F 		lw	$3,32($fp)
 915 079c 06104300 		srl	$2,$3,$2
 916 07a0 0F004230 		andi	$2,$2,0xf
 917 07a4 1400C2AF 		sw	$2,20($fp)
 918 07a8 1400C28F 		lw	$2,20($fp)
 919 07ac 0A004228 		slt	$2,$2,10
 920 07b0 0F004010 		beq	$2,$0,.L37
 921 07b4 00000000 		nop
 922              	
 923 07b8 1400C28F 		lw	$2,20($fp)
 924 07bc FF004230 		andi	$2,$2,0x00ff
 925 07c0 30004224 		addiu	$2,$2,48
 926 07c4 FF004230 		andi	$2,$2,0x00ff
 927 07c8 2014027C 		seb	$2,$2
 928 07cc 21184000 		move	$3,$2
 929 07d0 0000828F 		lw	$2,%gp_rel(_libc_data)($28)
 930 07d4 0400428C 		lw	$2,4($2)
 931 07d8 21206000 		move	$4,$3
 932 07dc 21284000 		move	$5,$2
 933 07e0 0000000C 		jal	fputc
 934 07e4 00000000 		nop
 935              	
 936 07e8 08020008 		j	.L36
 937 07ec 00000000 		nop
 938              	
 939              	.L37:
GAS LISTING C:\Users\Piotrek\AppData\Local\Temp\cc9LOeNg.s 			page 19


 940 07f0 1400C28F 		lw	$2,20($fp)
 941 07f4 FF004230 		andi	$2,$2,0x00ff
 942 07f8 37004224 		addiu	$2,$2,55
 943 07fc FF004230 		andi	$2,$2,0x00ff
 944 0800 2014027C 		seb	$2,$2
 945 0804 21184000 		move	$3,$2
 946 0808 0000828F 		lw	$2,%gp_rel(_libc_data)($28)
 947 080c 0400428C 		lw	$2,4($2)
 948 0810 21206000 		move	$4,$3
 949 0814 21284000 		move	$5,$2
 950 0818 0000000C 		jal	fputc
 951 081c 00000000 		nop
 952              	
 953              	.L36:
 954 0820 1000C283 		lb	$2,16($fp)
 955 0824 D7FF401C 		bgtz	$2,.L38
 956 0828 00000000 		nop
 957              	
 958 082c 21E8C003 		move	$sp,$fp
 959 0830 1C00BF8F 		lw	$31,28($sp)
 960 0834 1800BE8F 		lw	$fp,24($sp)
 961 0838 2000BD27 		addiu	$sp,$sp,32
 962 083c 0800E003 		j	$31
 963 0840 00000000 		nop
 964              	
 965              		.set	macro
 966              		.set	reorder
 967              	# Begin mchp_output_function_epilogue
 968              	# End mchp_output_function_epilogue
 969              		.end	UnityPrintNumberHex
 970              		.size	UnityPrintNumberHex, .-UnityPrintNumberHex
 971              		.align	2
 972              		.globl	UnityPrintMask
 973              		.set	nomips16
 974              		.set	nomicromips
 975              		.ent	UnityPrintMask
 976              		.type	UnityPrintMask, @function
 977              	UnityPrintMask:
 978              		.frame	$fp,32,$31		# vars= 8, regs= 2/0, args= 16, gp= 0
 979              		.mask	0xc0000000,-4
 980              		.fmask	0x00000000,0
 981              		.set	noreorder
 982              		.set	nomacro
 983              	# End mchp_output_function_prologue
 984 0844 E0FFBD27 		addiu	$sp,$sp,-32
 985 0848 1C00BFAF 		sw	$31,28($sp)
 986 084c 1800BEAF 		sw	$fp,24($sp)
 987 0850 21F0A003 		move	$fp,$sp
 988 0854 2000C4AF 		sw	$4,32($fp)
 989 0858 2400C5AF 		sw	$5,36($fp)
 990 085c 0080023C 		li	$2,-2147483648			# 0xffffffff80000000
 991 0860 1000C2AF 		sw	$2,16($fp)
 992 0864 1400C0AF 		sw	$0,20($fp)
 993 0868 42020008 		j	.L40
 994 086c 00000000 		nop
 995              	
 996              	.L45:
GAS LISTING C:\Users\Piotrek\AppData\Local\Temp\cc9LOeNg.s 			page 20


 997 0870 1000C38F 		lw	$3,16($fp)
 998 0874 2000C28F 		lw	$2,32($fp)
 999 0878 24106200 		and	$2,$3,$2
 1000 087c 16004010 		beq	$2,$0,.L41
 1001 0880 00000000 		nop
 1002              	
 1003 0884 1000C38F 		lw	$3,16($fp)
 1004 0888 2400C28F 		lw	$2,36($fp)
 1005 088c 24106200 		and	$2,$3,$2
 1006 0890 09004010 		beq	$2,$0,.L42
 1007 0894 00000000 		nop
 1008              	
 1009 0898 0000828F 		lw	$2,%gp_rel(_libc_data)($28)
 1010 089c 0400428C 		lw	$2,4($2)
 1011 08a0 31000424 		li	$4,49			# 0x31
 1012 08a4 21284000 		move	$5,$2
 1013 08a8 0000000C 		jal	fputc
 1014 08ac 00000000 		nop
 1015              	
 1016 08b0 3C020008 		j	.L44
 1017 08b4 00000000 		nop
 1018              	
 1019              	.L42:
 1020 08b8 0000828F 		lw	$2,%gp_rel(_libc_data)($28)
 1021 08bc 0400428C 		lw	$2,4($2)
 1022 08c0 30000424 		li	$4,48			# 0x30
 1023 08c4 21284000 		move	$5,$2
 1024 08c8 0000000C 		jal	fputc
 1025 08cc 00000000 		nop
 1026              	
 1027 08d0 3C020008 		j	.L44
 1028 08d4 00000000 		nop
 1029              	
 1030              	.L41:
 1031 08d8 0000828F 		lw	$2,%gp_rel(_libc_data)($28)
 1032 08dc 0400428C 		lw	$2,4($2)
 1033 08e0 58000424 		li	$4,88			# 0x58
 1034 08e4 21284000 		move	$5,$2
 1035 08e8 0000000C 		jal	fputc
 1036 08ec 00000000 		nop
 1037              	
 1038              	.L44:
 1039 08f0 1000C28F 		lw	$2,16($fp)
 1040 08f4 42100200 		srl	$2,$2,1
 1041 08f8 1000C2AF 		sw	$2,16($fp)
 1042 08fc 1400C28F 		lw	$2,20($fp)
 1043 0900 01004224 		addiu	$2,$2,1
 1044 0904 1400C2AF 		sw	$2,20($fp)
 1045              	.L40:
 1046 0908 1400C28F 		lw	$2,20($fp)
 1047 090c 20004228 		slt	$2,$2,32
 1048 0910 D7FF4014 		bne	$2,$0,.L45
 1049 0914 00000000 		nop
 1050              	
 1051 0918 21E8C003 		move	$sp,$fp
 1052 091c 1C00BF8F 		lw	$31,28($sp)
 1053 0920 1800BE8F 		lw	$fp,24($sp)
GAS LISTING C:\Users\Piotrek\AppData\Local\Temp\cc9LOeNg.s 			page 21


 1054 0924 2000BD27 		addiu	$sp,$sp,32
 1055 0928 0800E003 		j	$31
 1056 092c 00000000 		nop
 1057              	
 1058              		.set	macro
 1059              		.set	reorder
 1060              	# Begin mchp_output_function_epilogue
 1061              	# End mchp_output_function_epilogue
 1062              		.end	UnityPrintMask
 1063              		.size	UnityPrintMask, .-UnityPrintMask
 1064              		.section	.rodata,code
 1065 0267 00       		.align	2
 1066              	.LC0:
 1067 0268 3000     		.ascii	"0\000"
 1068 026a 0000     		.align	2
 1069              	.LC1:
 1070 026c 6E616E00 		.ascii	"nan\000"
 1071              		.align	2
 1072              	.LC3:
 1073 0270 696E6600 		.ascii	"inf\000"
 1074              		.section	.text,code
 1075              		.align	2
 1076              		.globl	UnityPrintFloat
 1077              		.set	nomips16
 1078              		.set	nomicromips
 1079              		.ent	UnityPrintFloat
 1080              		.type	UnityPrintFloat, @function
 1081              	UnityPrintFloat:
 1082              		.frame	$fp,80,$31		# vars= 56, regs= 2/0, args= 16, gp= 0
 1083              		.mask	0xc0000000,-4
 1084              		.fmask	0x00000000,0
 1085              		.set	noreorder
 1086              		.set	nomacro
 1087              	# End mchp_output_function_prologue
 1088 0930 B0FFBD27 		addiu	$sp,$sp,-80
 1089 0934 4C00BFAF 		sw	$31,76($sp)
 1090 0938 4800BEAF 		sw	$fp,72($sp)
 1091 093c 21F0A003 		move	$fp,$sp
 1092 0940 5000CCE7 		swc1	$f12,80($fp)
 1093 0944 5000C28F 		lw	$2,80($fp)
 1094 0948 1000C2AF 		sw	$2,16($fp)
 1095 094c 1000C38F 		lw	$3,16($fp)
 1096 0950 21100000 		move	$2,$0
 1097 0954 00008344 		mtc1	$3,$f0
 1098 0958 00088244 		mtc1	$2,$f1
 1099 095c 3C000146 		c.lt.s	$fcc0,$f0,$f1
 1100 0960 0B000045 		bc1f	$fcc0,.L47
 1101 0964 00000000 		nop
 1102              	
 1103 0968 0000828F 		lw	$2,%gp_rel(_libc_data)($28)
 1104 096c 0400428C 		lw	$2,4($2)
 1105 0970 2D000424 		li	$4,45			# 0x2d
 1106 0974 21284000 		move	$5,$2
 1107 0978 0000000C 		jal	fputc
 1108 097c 00000000 		nop
 1109              	
 1110 0980 1000C38F 		lw	$3,16($fp)
GAS LISTING C:\Users\Piotrek\AppData\Local\Temp\cc9LOeNg.s 			page 22


 1111 0984 0080023C 		li	$2,-2147483648			# 0xffffffff80000000
 1112 0988 26106200 		xor	$2,$3,$2
 1113 098c 1000C2AF 		sw	$2,16($fp)
 1114              	.L47:
 1115 0990 1000C38F 		lw	$3,16($fp)
 1116 0994 21100000 		move	$2,$0
 1117 0998 00008344 		mtc1	$3,$f0
 1118 099c 00088244 		mtc1	$2,$f1
 1119 09a0 32010146 		c.eq.s	$fcc1,$f0,$f1
 1120 09a4 07000445 		bc1f	$fcc1,.L49
 1121 09a8 00000000 		nop
 1122              	
 1123 09ac 0000023C 		lui	$2,%hi(.LC0)
 1124 09b0 68024424 		addiu	$4,$2,%lo(.LC0)
 1125 09b4 0000000C 		jal	UnityPrint
 1126 09b8 00000000 		nop
 1127              	
 1128 09bc 7C040008 		j	.L46
 1129 09c0 00000000 		nop
 1130              	
 1131              	.L49:
 1132 09c4 1000C38F 		lw	$3,16($fp)
 1133 09c8 1000C28F 		lw	$2,16($fp)
 1134 09cc 00008344 		mtc1	$3,$f0
 1135 09d0 00088244 		mtc1	$2,$f1
 1136 09d4 32020146 		c.eq.s	$fcc2,$f0,$f1
 1137 09d8 07000945 		bc1t	$fcc2,.L51
 1138 09dc 00000000 		nop
 1139              	
 1140 09e0 0000023C 		lui	$2,%hi(.LC1)
 1141 09e4 6C024424 		addiu	$4,$2,%lo(.LC1)
 1142 09e8 0000000C 		jal	UnityPrint
 1143 09ec 00000000 		nop
 1144              	
 1145 09f0 7C040008 		j	.L46
 1146 09f4 00000000 		nop
 1147              	
 1148              	.L51:
 1149 09f8 1000C28F 		lw	$2,16($fp)
 1150 09fc 00F0427C 		ext	$2,$2,0,31
 1151 0a00 00008244 		mtc1	$2,$f0
 1152 0a04 21000046 		cvt.d.s	$f0,$f0
 1153 0a08 00000444 		mfc1	$4,$f0
 1154 0a0c 00006544 		mfhc1	$5,$f0
 1155 0a10 01000624 		li	$6,1			# 0x1
 1156 0a14 0000023C 		lui	$2,%hi(.LC2)
 1157 0a18 8C02438C 		lw	$3,%lo(.LC2+4)($2)
 1158 0a1c 8802428C 		lw	$2,%lo(.LC2)($2)
 1159 0a20 00088444 		mtc1	$4,$f1
 1160 0a24 0008E544 		mthc1	$5,$f1
 1161 0a28 00008244 		mtc1	$2,$f0
 1162 0a2c 0000E344 		mthc1	$3,$f0
 1163 0a30 370B2046 		c.ule.d	$fcc3,$f1,$f0
 1164 0a34 02000D45 		bc1t	$fcc3,.L52
 1165 0a38 00000000 		nop
 1166              	
 1167 0a3c 21300000 		move	$6,$0
GAS LISTING C:\Users\Piotrek\AppData\Local\Temp\cc9LOeNg.s 			page 23


 1168              	.L52:
 1169 0a40 FF00C230 		andi	$2,$6,0x00ff
 1170 0a44 01004238 		xori	$2,$2,0x1
 1171 0a48 FF004230 		andi	$2,$2,0x00ff
 1172 0a4c 07004010 		beq	$2,$0,.L53
 1173 0a50 00000000 		nop
 1174              	
 1175 0a54 0000023C 		lui	$2,%hi(.LC3)
 1176 0a58 70024424 		addiu	$4,$2,%lo(.LC3)
 1177 0a5c 0000000C 		jal	UnityPrint
 1178 0a60 00000000 		nop
 1179              	
 1180 0a64 7C040008 		j	.L46
 1181 0a68 00000000 		nop
 1182              	
 1183              	.L53:
 1184 0a6c 1400C0AF 		sw	$0,20($fp)
 1185 0a70 1C00C0AF 		sw	$0,28($fp)
 1186 0a74 3400C0AF 		sw	$0,52($fp)
 1187 0a78 3800C0AF 		sw	$0,56($fp)
 1188 0a7c 3C00C0AF 		sw	$0,60($fp)
 1189 0a80 4000C0AF 		sw	$0,64($fp)
 1190 0a84 1000C38F 		lw	$3,16($fp)
 1191 0a88 0000023C 		lui	$2,%hi(.LC4)
 1192 0a8c 9002428C 		lw	$2,%lo(.LC4)($2)
 1193 0a90 00088344 		mtc1	$3,$f1
 1194 0a94 00008244 		mtc1	$2,$f0
 1195 0a98 3C0C0046 		c.lt.s	$fcc4,$f1,$f0
 1196 0a9c 48001045 		bc1f	$fcc4,.L91
 1197 0aa0 00000000 		nop
 1198              	
 1199 0aa4 0000023C 		lui	$2,%hi(.LC4)
 1200 0aa8 9002428C 		lw	$2,%lo(.LC4)($2)
 1201 0aac 2800C2AF 		sw	$2,40($fp)
 1202 0ab0 B9020008 		j	.L56
 1203 0ab4 00000000 		nop
 1204              	
 1205              	.L57:
 1206 0ab8 1000C38F 		lw	$3,16($fp)
 1207 0abc 0000023C 		lui	$2,%hi(.LC5)
 1208 0ac0 9402428C 		lw	$2,%lo(.LC5)($2)
 1209 0ac4 00088344 		mtc1	$3,$f1
 1210 0ac8 00008244 		mtc1	$2,$f0
 1211 0acc 42080046 		mul.s	$f1,$f1,$f0
 1212 0ad0 00080244 		mfc1	$2,$f1
 1213 0ad4 1000C2AF 		sw	$2,16($fp)
 1214 0ad8 1C00C28F 		lw	$2,28($fp)
 1215 0adc F6FF4224 		addiu	$2,$2,-10
 1216 0ae0 1C00C2AF 		sw	$2,28($fp)
 1217              	.L56:
 1218 0ae4 9800023C 		li	$2,9961472			# 0x980000
 1219 0ae8 80964234 		ori	$2,$2,0x9680
 1220 0aec 00088244 		mtc1	$2,$f1
 1221 0af0 60088046 		cvt.s.w	$f1,$f1
 1222 0af4 00080344 		mfc1	$3,$f1
 1223 0af8 0000023C 		lui	$2,%hi(.LC5)
 1224 0afc 9402428C 		lw	$2,%lo(.LC5)($2)
GAS LISTING C:\Users\Piotrek\AppData\Local\Temp\cc9LOeNg.s 			page 24


 1225 0b00 00008344 		mtc1	$3,$f0
 1226 0b04 00088244 		mtc1	$2,$f1
 1227 0b08 03000146 		div.s	$f0,$f0,$f1
 1228 0b0c 00000344 		mfc1	$3,$f0
 1229 0b10 1000C28F 		lw	$2,16($fp)
 1230 0b14 00008344 		mtc1	$3,$f0
 1231 0b18 00088244 		mtc1	$2,$f1
 1232 0b1c 3C0D0046 		c.lt.s	$fcc5,$f1,$f0
 1233 0b20 E5FF1545 		bc1t	$fcc5,.L57
 1234 0b24 00000000 		nop
 1235              	
 1236 0b28 D7020008 		j	.L58
 1237 0b2c 00000000 		nop
 1238              	
 1239              	.L59:
 1240 0b30 2800C38F 		lw	$3,40($fp)
 1241 0b34 0000023C 		lui	$2,%hi(.LC6)
 1242 0b38 9802428C 		lw	$2,%lo(.LC6)($2)
 1243 0b3c 00008344 		mtc1	$3,$f0
 1244 0b40 00088244 		mtc1	$2,$f1
 1245 0b44 02000146 		mul.s	$f0,$f0,$f1
 1246 0b48 00000244 		mfc1	$2,$f0
 1247 0b4c 2800C2AF 		sw	$2,40($fp)
 1248 0b50 1C00C28F 		lw	$2,28($fp)
 1249 0b54 FFFF4224 		addiu	$2,$2,-1
 1250 0b58 1C00C2AF 		sw	$2,28($fp)
 1251              	.L58:
 1252 0b5c 1000C38F 		lw	$3,16($fp)
 1253 0b60 2800C28F 		lw	$2,40($fp)
 1254 0b64 00008344 		mtc1	$3,$f0
 1255 0b68 00088244 		mtc1	$2,$f1
 1256 0b6c 02000146 		mul.s	$f0,$f0,$f1
 1257 0b70 00000344 		mfc1	$3,$f0
 1258 0b74 0F00023C 		li	$2,983040			# 0xf0000
 1259 0b78 40424234 		ori	$2,$2,0x4240
 1260 0b7c 00008244 		mtc1	$2,$f0
 1261 0b80 20008046 		cvt.s.w	$f0,$f0
 1262 0b84 00000244 		mfc1	$2,$f0
 1263 0b88 00088344 		mtc1	$3,$f1
 1264 0b8c 00008244 		mtc1	$2,$f0
 1265 0b90 3C0E0046 		c.lt.s	$fcc6,$f1,$f0
 1266 0b94 E6FF1945 		bc1t	$fcc6,.L59
 1267 0b98 00000000 		nop
 1268              	
 1269 0b9c 1000C38F 		lw	$3,16($fp)
 1270 0ba0 2800C28F 		lw	$2,40($fp)
 1271 0ba4 00088344 		mtc1	$3,$f1
 1272 0ba8 00008244 		mtc1	$2,$f0
 1273 0bac 42080046 		mul.s	$f1,$f1,$f0
 1274 0bb0 00080244 		mfc1	$2,$f1
 1275 0bb4 1000C2AF 		sw	$2,16($fp)
 1276 0bb8 73030008 		j	.L60
 1277 0bbc 00000000 		nop
 1278              	
 1279              	.L91:
 1280 0bc0 9800023C 		li	$2,9961472			# 0x980000
 1281 0bc4 80964234 		ori	$2,$2,0x9680
GAS LISTING C:\Users\Piotrek\AppData\Local\Temp\cc9LOeNg.s 			page 25


 1282 0bc8 00088244 		mtc1	$2,$f1
 1283 0bcc 60088046 		cvt.s.w	$f1,$f1
 1284 0bd0 00080344 		mfc1	$3,$f1
 1285 0bd4 1000C28F 		lw	$2,16($fp)
 1286 0bd8 00008344 		mtc1	$3,$f0
 1287 0bdc 00088244 		mtc1	$2,$f1
 1288 0be0 3C070146 		c.lt.s	$fcc7,$f0,$f1
 1289 0be4 48001C45 		bc1f	$fcc7,.L92
 1290 0be8 00000000 		nop
 1291              	
 1292 0bec 0000023C 		lui	$2,%hi(.LC4)
 1293 0bf0 9002428C 		lw	$2,%lo(.LC4)($2)
 1294 0bf4 2C00C2AF 		sw	$2,44($fp)
 1295 0bf8 0B030008 		j	.L63
 1296 0bfc 00000000 		nop
 1297              	
 1298              	.L64:
 1299 0c00 1000C38F 		lw	$3,16($fp)
 1300 0c04 0000023C 		lui	$2,%hi(.LC5)
 1301 0c08 9402428C 		lw	$2,%lo(.LC5)($2)
 1302 0c0c 00008344 		mtc1	$3,$f0
 1303 0c10 00088244 		mtc1	$2,$f1
 1304 0c14 03000146 		div.s	$f0,$f0,$f1
 1305 0c18 00000244 		mfc1	$2,$f0
 1306 0c1c 1000C2AF 		sw	$2,16($fp)
 1307 0c20 1C00C28F 		lw	$2,28($fp)
 1308 0c24 0A004224 		addiu	$2,$2,10
 1309 0c28 1C00C2AF 		sw	$2,28($fp)
 1310              	.L63:
 1311 0c2c 0F00023C 		li	$2,983040			# 0xf0000
 1312 0c30 40424234 		ori	$2,$2,0x4240
 1313 0c34 00008244 		mtc1	$2,$f0
 1314 0c38 20008046 		cvt.s.w	$f0,$f0
 1315 0c3c 00000344 		mfc1	$3,$f0
 1316 0c40 0000023C 		lui	$2,%hi(.LC5)
 1317 0c44 9402428C 		lw	$2,%lo(.LC5)($2)
 1318 0c48 00088344 		mtc1	$3,$f1
 1319 0c4c 00008244 		mtc1	$2,$f0
 1320 0c50 42080046 		mul.s	$f1,$f1,$f0
 1321 0c54 00080344 		mfc1	$3,$f1
 1322 0c58 1000C28F 		lw	$2,16($fp)
 1323 0c5c 00088344 		mtc1	$3,$f1
 1324 0c60 00008244 		mtc1	$2,$f0
 1325 0c64 3C080046 		c.lt.s	$fcc0,$f1,$f0
 1326 0c68 E5FF0145 		bc1t	$fcc0,.L64
 1327 0c6c 00000000 		nop
 1328              	
 1329 0c70 29030008 		j	.L65
 1330 0c74 00000000 		nop
 1331              	
 1332              	.L66:
 1333 0c78 2C00C38F 		lw	$3,44($fp)
 1334 0c7c 0000023C 		lui	$2,%hi(.LC6)
 1335 0c80 9802428C 		lw	$2,%lo(.LC6)($2)
 1336 0c84 00088344 		mtc1	$3,$f1
 1337 0c88 00008244 		mtc1	$2,$f0
 1338 0c8c 42080046 		mul.s	$f1,$f1,$f0
GAS LISTING C:\Users\Piotrek\AppData\Local\Temp\cc9LOeNg.s 			page 26


 1339 0c90 00080244 		mfc1	$2,$f1
 1340 0c94 2C00C2AF 		sw	$2,44($fp)
 1341 0c98 1C00C28F 		lw	$2,28($fp)
 1342 0c9c 01004224 		addiu	$2,$2,1
 1343 0ca0 1C00C2AF 		sw	$2,28($fp)
 1344              	.L65:
 1345 0ca4 1000C38F 		lw	$3,16($fp)
 1346 0ca8 2C00C28F 		lw	$2,44($fp)
 1347 0cac 00088344 		mtc1	$3,$f1
 1348 0cb0 00008244 		mtc1	$2,$f0
 1349 0cb4 43080046 		div.s	$f1,$f1,$f0
 1350 0cb8 00080344 		mfc1	$3,$f1
 1351 0cbc 9800023C 		li	$2,9961472			# 0x980000
 1352 0cc0 80964234 		ori	$2,$2,0x9680
 1353 0cc4 00088244 		mtc1	$2,$f1
 1354 0cc8 60088046 		cvt.s.w	$f1,$f1
 1355 0ccc 00080244 		mfc1	$2,$f1
 1356 0cd0 00008344 		mtc1	$3,$f0
 1357 0cd4 00088244 		mtc1	$2,$f1
 1358 0cd8 3C090046 		c.lt.s	$fcc1,$f1,$f0
 1359 0cdc E6FF0545 		bc1t	$fcc1,.L66
 1360 0ce0 00000000 		nop
 1361              	
 1362 0ce4 1000C38F 		lw	$3,16($fp)
 1363 0ce8 2C00C28F 		lw	$2,44($fp)
 1364 0cec 00008344 		mtc1	$3,$f0
 1365 0cf0 00088244 		mtc1	$2,$f1
 1366 0cf4 03000146 		div.s	$f0,$f0,$f1
 1367 0cf8 00000244 		mfc1	$2,$f0
 1368 0cfc 1000C2AF 		sw	$2,16($fp)
 1369 0d00 73030008 		j	.L60
 1370 0d04 00000000 		nop
 1371              	
 1372              	.L92:
 1373 0d08 0000023C 		lui	$2,%hi(.LC4)
 1374 0d0c 9002428C 		lw	$2,%lo(.LC4)($2)
 1375 0d10 3000C2AF 		sw	$2,48($fp)
 1376 0d14 1000C28F 		lw	$2,16($fp)
 1377 0d18 00008244 		mtc1	$2,$f0
 1378 0d1c 0D000046 		trunc.w.s $f0,$f0
 1379 0d20 00000244 		mfc1	$2,$f0
 1380 0d24 1400C2AF 		sw	$2,20($fp)
 1381 0d28 1400C28F 		lw	$2,20($fp)
 1382 0d2c 00088244 		mtc1	$2,$f1
 1383 0d30 60088046 		cvt.s.w	$f1,$f1
 1384 0d34 00080244 		mfc1	$2,$f1
 1385 0d38 1000C38F 		lw	$3,16($fp)
 1386 0d3c 00008344 		mtc1	$3,$f0
 1387 0d40 00088244 		mtc1	$2,$f1
 1388 0d44 01000146 		sub.s	$f0,$f0,$f1
 1389 0d48 00000244 		mfc1	$2,$f0
 1390 0d4c 1000C2AF 		sw	$2,16($fp)
 1391 0d50 66030008 		j	.L67
 1392 0d54 00000000 		nop
 1393              	
 1394              	.L68:
 1395 0d58 1400C28F 		lw	$2,20($fp)
GAS LISTING C:\Users\Piotrek\AppData\Local\Temp\cc9LOeNg.s 			page 27


 1396 0d5c 40100200 		sll	$2,$2,1
 1397 0d60 80180200 		sll	$3,$2,2
 1398 0d64 21104300 		addu	$2,$2,$3
 1399 0d68 1400C2AF 		sw	$2,20($fp)
 1400 0d6c 3000C38F 		lw	$3,48($fp)
 1401 0d70 0000023C 		lui	$2,%hi(.LC6)
 1402 0d74 9802428C 		lw	$2,%lo(.LC6)($2)
 1403 0d78 00008344 		mtc1	$3,$f0
 1404 0d7c 00088244 		mtc1	$2,$f1
 1405 0d80 02000146 		mul.s	$f0,$f0,$f1
 1406 0d84 00000244 		mfc1	$2,$f0
 1407 0d88 3000C2AF 		sw	$2,48($fp)
 1408 0d8c 1C00C28F 		lw	$2,28($fp)
 1409 0d90 FFFF4224 		addiu	$2,$2,-1
 1410 0d94 1C00C2AF 		sw	$2,28($fp)
 1411              	.L67:
 1412 0d98 0F00023C 		li	$2,983040			# 0xf0000
 1413 0d9c 40424234 		ori	$2,$2,0x4240
 1414 0da0 1400C38F 		lw	$3,20($fp)
 1415 0da4 2A106200 		slt	$2,$3,$2
 1416 0da8 EBFF4014 		bne	$2,$0,.L68
 1417 0dac 00000000 		nop
 1418              	
 1419 0db0 1000C38F 		lw	$3,16($fp)
 1420 0db4 3000C28F 		lw	$2,48($fp)
 1421 0db8 00008344 		mtc1	$3,$f0
 1422 0dbc 00088244 		mtc1	$2,$f1
 1423 0dc0 02000146 		mul.s	$f0,$f0,$f1
 1424 0dc4 00000244 		mfc1	$2,$f0
 1425 0dc8 1000C2AF 		sw	$2,16($fp)
 1426              	.L60:
 1427 0dcc 1000C28F 		lw	$2,16($fp)
 1428 0dd0 00008244 		mtc1	$2,$f0
 1429 0dd4 00088244 		mtc1	$2,$f1
 1430 0dd8 00000146 		add.s	$f0,$f0,$f1
 1431 0ddc 00000244 		mfc1	$2,$f0
 1432 0de0 00008244 		mtc1	$2,$f0
 1433 0de4 0D000046 		trunc.w.s $f0,$f0
 1434 0de8 00000244 		mfc1	$2,$f0
 1435 0dec 01004224 		addiu	$2,$2,1
 1436 0df0 C21F0200 		srl	$3,$2,31
 1437 0df4 21106200 		addu	$2,$3,$2
 1438 0df8 43100200 		sra	$2,$2,1
 1439 0dfc 1800C2AF 		sw	$2,24($fp)
 1440 0e00 1800C28F 		lw	$2,24($fp)
 1441 0e04 01004230 		andi	$2,$2,0x1
 1442 0e08 14004010 		beq	$2,$0,.L69
 1443 0e0c 00000000 		nop
 1444              	
 1445 0e10 1800C28F 		lw	$2,24($fp)
 1446 0e14 00088244 		mtc1	$2,$f1
 1447 0e18 60088046 		cvt.s.w	$f1,$f1
 1448 0e1c 00080344 		mfc1	$3,$f1
 1449 0e20 1000C28F 		lw	$2,16($fp)
 1450 0e24 00008344 		mtc1	$3,$f0
 1451 0e28 00088244 		mtc1	$2,$f1
 1452 0e2c 01000146 		sub.s	$f0,$f0,$f1
GAS LISTING C:\Users\Piotrek\AppData\Local\Temp\cc9LOeNg.s 			page 28


 1453 0e30 00000344 		mfc1	$3,$f0
 1454 0e34 0000023C 		lui	$2,%hi(.LC7)
 1455 0e38 9C02428C 		lw	$2,%lo(.LC7)($2)
 1456 0e3c 00008344 		mtc1	$3,$f0
 1457 0e40 00088244 		mtc1	$2,$f1
 1458 0e44 32020146 		c.eq.s	$fcc2,$f0,$f1
 1459 0e48 04000845 		bc1f	$fcc2,.L69
 1460 0e4c 00000000 		nop
 1461              	
 1462 0e50 1800C28F 		lw	$2,24($fp)
 1463 0e54 FFFF4224 		addiu	$2,$2,-1
 1464 0e58 1800C2AF 		sw	$2,24($fp)
 1465              	.L69:
 1466 0e5c 1800C38F 		lw	$3,24($fp)
 1467 0e60 1400C28F 		lw	$2,20($fp)
 1468 0e64 21106200 		addu	$2,$3,$2
 1469 0e68 1800C2AF 		sw	$2,24($fp)
 1470 0e6c 9800023C 		li	$2,9961472			# 0x980000
 1471 0e70 80964234 		ori	$2,$2,0x9680
 1472 0e74 1800C38F 		lw	$3,24($fp)
 1473 0e78 2A106200 		slt	$2,$3,$2
 1474 0e7c 07004014 		bne	$2,$0,.L70
 1475 0e80 00000000 		nop
 1476              	
 1477 0e84 0F00023C 		li	$2,983040			# 0xf0000
 1478 0e88 40424234 		ori	$2,$2,0x4240
 1479 0e8c 1800C2AF 		sw	$2,24($fp)
 1480 0e90 1C00C28F 		lw	$2,28($fp)
 1481 0e94 01004224 		addiu	$2,$2,1
 1482 0e98 1C00C2AF 		sw	$2,28($fp)
 1483              	.L70:
 1484 0e9c 1C00C28F 		lw	$2,28($fp)
 1485 0ea0 0C00401C 		bgtz	$2,.L71
 1486 0ea4 00000000 		nop
 1487              	
 1488 0ea8 07000224 		li	$2,7			# 0x7
 1489 0eac FDFF0324 		li	$3,-3			# 0xfffffffffffffffd
 1490 0eb0 23186200 		subu	$3,$3,$2
 1491 0eb4 1C00C28F 		lw	$2,28($fp)
 1492 0eb8 2A104300 		slt	$2,$2,$3
 1493 0ebc 05004014 		bne	$2,$0,.L71
 1494 0ec0 00000000 		nop
 1495              	
 1496 0ec4 1C00C28F 		lw	$2,28($fp)
 1497 0ec8 23100200 		subu	$2,$0,$2
 1498 0ecc B7030008 		j	.L72
 1499 0ed0 00000000 		nop
 1500              	
 1501              	.L71:
 1502 0ed4 07000224 		li	$2,7			# 0x7
 1503 0ed8 FFFF4224 		addiu	$2,$2,-1
 1504              	.L72:
 1505 0edc 2000C2AF 		sw	$2,32($fp)
 1506 0ee0 1C00C38F 		lw	$3,28($fp)
 1507 0ee4 2000C28F 		lw	$2,32($fp)
 1508 0ee8 21106200 		addu	$2,$3,$2
 1509 0eec 1C00C2AF 		sw	$2,28($fp)
GAS LISTING C:\Users\Piotrek\AppData\Local\Temp\cc9LOeNg.s 			page 29


 1510 0ef0 CA030008 		j	.L73
 1511 0ef4 00000000 		nop
 1512              	
 1513              	.L75:
 1514 0ef8 1800C28F 		lw	$2,24($fp)
 1515 0efc 6666033C 		li	$3,1717960704			# 0x66660000
 1516 0f00 67666334 		ori	$3,$3,0x6667
 1517 0f04 18004300 		mult	$ac0,$2,$3
 1518 0f08 10180000 		mfhi	$3
 1519 0f0c 83180300 		sra	$3,$3,2
 1520 0f10 C3170200 		sra	$2,$2,31
 1521 0f14 23106200 		subu	$2,$3,$2
 1522 0f18 1800C2AF 		sw	$2,24($fp)
 1523 0f1c 2000C28F 		lw	$2,32($fp)
 1524 0f20 FFFF4224 		addiu	$2,$2,-1
 1525 0f24 2000C2AF 		sw	$2,32($fp)
 1526              	.L73:
 1527 0f28 2000C28F 		lw	$2,32($fp)
 1528 0f2c 0F004018 		blez	$2,.L74
 1529 0f30 00000000 		nop
 1530              	
 1531 0f34 1800C38F 		lw	$3,24($fp)
 1532 0f38 6666023C 		li	$2,1717960704			# 0x66660000
 1533 0f3c 67664234 		ori	$2,$2,0x6667
 1534 0f40 18006200 		mult	$ac0,$3,$2
 1535 0f44 10100000 		mfhi	$2
 1536 0f48 83200200 		sra	$4,$2,2
 1537 0f4c C3170300 		sra	$2,$3,31
 1538 0f50 23108200 		subu	$2,$4,$2
 1539 0f54 40100200 		sll	$2,$2,1
 1540 0f58 80200200 		sll	$4,$2,2
 1541 0f5c 21104400 		addu	$2,$2,$4
 1542 0f60 23106200 		subu	$2,$3,$2
 1543 0f64 E4FF4010 		beq	$2,$0,.L75
 1544 0f68 00000000 		nop
 1545              	
 1546              	.L74:
 1547 0f6c 2400C0AF 		sw	$0,36($fp)
 1548 0f70 FD030008 		j	.L76
 1549 0f74 00000000 		nop
 1550              	
 1551              	.L77:
 1552 0f78 2400C48F 		lw	$4,36($fp)
 1553 0f7c 01008224 		addiu	$2,$4,1
 1554 0f80 2400C2AF 		sw	$2,36($fp)
 1555 0f84 1800C38F 		lw	$3,24($fp)
 1556 0f88 6666023C 		li	$2,1717960704			# 0x66660000
 1557 0f8c 67664234 		ori	$2,$2,0x6667
 1558 0f90 18006200 		mult	$ac0,$3,$2
 1559 0f94 10100000 		mfhi	$2
 1560 0f98 83280200 		sra	$5,$2,2
 1561 0f9c C3170300 		sra	$2,$3,31
 1562 0fa0 2310A200 		subu	$2,$5,$2
 1563 0fa4 40100200 		sll	$2,$2,1
 1564 0fa8 80280200 		sll	$5,$2,2
 1565 0fac 21104500 		addu	$2,$2,$5
 1566 0fb0 23106200 		subu	$2,$3,$2
GAS LISTING C:\Users\Piotrek\AppData\Local\Temp\cc9LOeNg.s 			page 30


 1567 0fb4 FF004230 		andi	$2,$2,0x00ff
 1568 0fb8 30004224 		addiu	$2,$2,48
 1569 0fbc FF004230 		andi	$2,$2,0x00ff
 1570 0fc0 201C027C 		seb	$3,$2
 1571 0fc4 1000C227 		addiu	$2,$fp,16
 1572 0fc8 21104400 		addu	$2,$2,$4
 1573 0fcc 240043A0 		sb	$3,36($2)
 1574 0fd0 1800C28F 		lw	$2,24($fp)
 1575 0fd4 6666033C 		li	$3,1717960704			# 0x66660000
 1576 0fd8 67666334 		ori	$3,$3,0x6667
 1577 0fdc 18004300 		mult	$ac0,$2,$3
 1578 0fe0 10180000 		mfhi	$3
 1579 0fe4 83180300 		sra	$3,$3,2
 1580 0fe8 C3170200 		sra	$2,$2,31
 1581 0fec 23106200 		subu	$2,$3,$2
 1582 0ff0 1800C2AF 		sw	$2,24($fp)
 1583              	.L76:
 1584 0ff4 1800C28F 		lw	$2,24($fp)
 1585 0ff8 DFFF4014 		bne	$2,$0,.L77
 1586 0ffc 00000000 		nop
 1587              	
 1588 1000 2000C28F 		lw	$2,32($fp)
 1589 1004 01004324 		addiu	$3,$2,1
 1590 1008 2400C28F 		lw	$2,36($fp)
 1591 100c 2A104300 		slt	$2,$2,$3
 1592 1010 D9FF4014 		bne	$2,$0,.L77
 1593 1014 00000000 		nop
 1594              	
 1595 1018 20040008 		j	.L78
 1596 101c 00000000 		nop
 1597              	
 1598              	.L80:
 1599 1020 2400C38F 		lw	$3,36($fp)
 1600 1024 2000C28F 		lw	$2,32($fp)
 1601 1028 07006214 		bne	$3,$2,.L79
 1602 102c 00000000 		nop
 1603              	
 1604 1030 0000828F 		lw	$2,%gp_rel(_libc_data)($28)
 1605 1034 0400428C 		lw	$2,4($2)
 1606 1038 2E000424 		li	$4,46			# 0x2e
 1607 103c 21284000 		move	$5,$2
 1608 1040 0000000C 		jal	fputc
 1609 1044 00000000 		nop
 1610              	
 1611              	.L79:
 1612 1048 2400C28F 		lw	$2,36($fp)
 1613 104c FFFF4224 		addiu	$2,$2,-1
 1614 1050 2400C2AF 		sw	$2,36($fp)
 1615 1054 2400C28F 		lw	$2,36($fp)
 1616 1058 1000C327 		addiu	$3,$fp,16
 1617 105c 21106200 		addu	$2,$3,$2
 1618 1060 24004280 		lb	$2,36($2)
 1619 1064 21184000 		move	$3,$2
 1620 1068 0000828F 		lw	$2,%gp_rel(_libc_data)($28)
 1621 106c 0400428C 		lw	$2,4($2)
 1622 1070 21206000 		move	$4,$3
 1623 1074 21284000 		move	$5,$2
GAS LISTING C:\Users\Piotrek\AppData\Local\Temp\cc9LOeNg.s 			page 31


 1624 1078 0000000C 		jal	fputc
 1625 107c 00000000 		nop
 1626              	
 1627              	.L78:
 1628 1080 2400C28F 		lw	$2,36($fp)
 1629 1084 E6FF401C 		bgtz	$2,.L80
 1630 1088 00000000 		nop
 1631              	
 1632 108c 1C00C28F 		lw	$2,28($fp)
 1633 1090 57004010 		beq	$2,$0,.L46
 1634 1094 00000000 		nop
 1635              	
 1636 1098 0000828F 		lw	$2,%gp_rel(_libc_data)($28)
 1637 109c 0400428C 		lw	$2,4($2)
 1638 10a0 65000424 		li	$4,101			# 0x65
 1639 10a4 21284000 		move	$5,$2
 1640 10a8 0000000C 		jal	fputc
 1641 10ac 00000000 		nop
 1642              	
 1643 10b0 1C00C28F 		lw	$2,28($fp)
 1644 10b4 0C004104 		bgez	$2,.L82
 1645 10b8 00000000 		nop
 1646              	
 1647 10bc 0000828F 		lw	$2,%gp_rel(_libc_data)($28)
 1648 10c0 0400428C 		lw	$2,4($2)
 1649 10c4 2D000424 		li	$4,45			# 0x2d
 1650 10c8 21284000 		move	$5,$2
 1651 10cc 0000000C 		jal	fputc
 1652 10d0 00000000 		nop
 1653              	
 1654 10d4 1C00C28F 		lw	$2,28($fp)
 1655 10d8 23100200 		subu	$2,$0,$2
 1656 10dc 1C00C2AF 		sw	$2,28($fp)
 1657 10e0 40040008 		j	.L83
 1658 10e4 00000000 		nop
 1659              	
 1660              	.L82:
 1661 10e8 0000828F 		lw	$2,%gp_rel(_libc_data)($28)
 1662 10ec 0400428C 		lw	$2,4($2)
 1663 10f0 2B000424 		li	$4,43			# 0x2b
 1664 10f4 21284000 		move	$5,$2
 1665 10f8 0000000C 		jal	fputc
 1666 10fc 00000000 		nop
 1667              	
 1668              	.L83:
 1669 1100 2400C0AF 		sw	$0,36($fp)
 1670 1104 62040008 		j	.L84
 1671 1108 00000000 		nop
 1672              	
 1673              	.L85:
 1674 110c 2400C48F 		lw	$4,36($fp)
 1675 1110 01008224 		addiu	$2,$4,1
 1676 1114 2400C2AF 		sw	$2,36($fp)
 1677 1118 1C00C38F 		lw	$3,28($fp)
 1678 111c 6666023C 		li	$2,1717960704			# 0x66660000
 1679 1120 67664234 		ori	$2,$2,0x6667
 1680 1124 18006200 		mult	$ac0,$3,$2
GAS LISTING C:\Users\Piotrek\AppData\Local\Temp\cc9LOeNg.s 			page 32


 1681 1128 10100000 		mfhi	$2
 1682 112c 83280200 		sra	$5,$2,2
 1683 1130 C3170300 		sra	$2,$3,31
 1684 1134 2310A200 		subu	$2,$5,$2
 1685 1138 40100200 		sll	$2,$2,1
 1686 113c 80280200 		sll	$5,$2,2
 1687 1140 21104500 		addu	$2,$2,$5
 1688 1144 23106200 		subu	$2,$3,$2
 1689 1148 FF004230 		andi	$2,$2,0x00ff
 1690 114c 30004224 		addiu	$2,$2,48
 1691 1150 FF004230 		andi	$2,$2,0x00ff
 1692 1154 201C027C 		seb	$3,$2
 1693 1158 1000C227 		addiu	$2,$fp,16
 1694 115c 21104400 		addu	$2,$2,$4
 1695 1160 240043A0 		sb	$3,36($2)
 1696 1164 1C00C28F 		lw	$2,28($fp)
 1697 1168 6666033C 		li	$3,1717960704			# 0x66660000
 1698 116c 67666334 		ori	$3,$3,0x6667
 1699 1170 18004300 		mult	$ac0,$2,$3
 1700 1174 10180000 		mfhi	$3
 1701 1178 83180300 		sra	$3,$3,2
 1702 117c C3170200 		sra	$2,$2,31
 1703 1180 23106200 		subu	$2,$3,$2
 1704 1184 1C00C2AF 		sw	$2,28($fp)
 1705              	.L84:
 1706 1188 1C00C28F 		lw	$2,28($fp)
 1707 118c DFFF4014 		bne	$2,$0,.L85
 1708 1190 00000000 		nop
 1709              	
 1710 1194 2400C28F 		lw	$2,36($fp)
 1711 1198 02004228 		slt	$2,$2,2
 1712 119c DBFF4014 		bne	$2,$0,.L85
 1713 11a0 00000000 		nop
 1714              	
 1715 11a4 79040008 		j	.L86
 1716 11a8 00000000 		nop
 1717              	
 1718              	.L87:
 1719 11ac 2400C28F 		lw	$2,36($fp)
 1720 11b0 FFFF4224 		addiu	$2,$2,-1
 1721 11b4 2400C2AF 		sw	$2,36($fp)
 1722 11b8 2400C28F 		lw	$2,36($fp)
 1723 11bc 1000C327 		addiu	$3,$fp,16
 1724 11c0 21106200 		addu	$2,$3,$2
 1725 11c4 24004280 		lb	$2,36($2)
 1726 11c8 21184000 		move	$3,$2
 1727 11cc 0000828F 		lw	$2,%gp_rel(_libc_data)($28)
 1728 11d0 0400428C 		lw	$2,4($2)
 1729 11d4 21206000 		move	$4,$3
 1730 11d8 21284000 		move	$5,$2
 1731 11dc 0000000C 		jal	fputc
 1732 11e0 00000000 		nop
 1733              	
 1734              	.L86:
 1735 11e4 2400C28F 		lw	$2,36($fp)
 1736 11e8 F0FF401C 		bgtz	$2,.L87
 1737 11ec 00000000 		nop
GAS LISTING C:\Users\Piotrek\AppData\Local\Temp\cc9LOeNg.s 			page 33


 1738              	
 1739              	.L46:
 1740 11f0 21E8C003 		move	$sp,$fp
 1741 11f4 4C00BF8F 		lw	$31,76($sp)
 1742 11f8 4800BE8F 		lw	$fp,72($sp)
 1743 11fc 5000BD27 		addiu	$sp,$sp,80
 1744 1200 0800E003 		j	$31
 1745 1204 00000000 		nop
 1746              	
 1747              		.set	macro
 1748              		.set	reorder
 1749              	# Begin mchp_output_function_epilogue
 1750              	# End mchp_output_function_epilogue
 1751              		.end	UnityPrintFloat
 1752              		.size	UnityPrintFloat, .-UnityPrintFloat
 1753              		.align	2
 1754              		.set	nomips16
 1755              		.set	nomicromips
 1756              		.ent	UnityTestResultsBegin
 1757              		.type	UnityTestResultsBegin, @function
 1758              	UnityTestResultsBegin:
 1759              		.frame	$fp,24,$31		# vars= 0, regs= 2/0, args= 16, gp= 0
 1760              		.mask	0xc0000000,-4
 1761              		.fmask	0x00000000,0
 1762              		.set	noreorder
 1763              		.set	nomacro
 1764              	# End mchp_output_function_prologue
 1765 1208 E8FFBD27 		addiu	$sp,$sp,-24
 1766 120c 1400BFAF 		sw	$31,20($sp)
 1767 1210 1000BEAF 		sw	$fp,16($sp)
 1768 1214 21F0A003 		move	$fp,$sp
 1769 1218 1800C4AF 		sw	$4,24($fp)
 1770 121c 1C00C5AF 		sw	$5,28($fp)
 1771 1220 1800C48F 		lw	$4,24($fp)
 1772 1224 0000000C 		jal	UnityPrint
 1773 1228 00000000 		nop
 1774              	
 1775 122c 0000828F 		lw	$2,%gp_rel(_libc_data)($28)
 1776 1230 0400428C 		lw	$2,4($2)
 1777 1234 3A000424 		li	$4,58			# 0x3a
 1778 1238 21284000 		move	$5,$2
 1779 123c 0000000C 		jal	fputc
 1780 1240 00000000 		nop
 1781              	
 1782 1244 1C00C28F 		lw	$2,28($fp)
 1783 1248 21204000 		move	$4,$2
 1784 124c 0000000C 		jal	UnityPrintNumber
 1785 1250 00000000 		nop
 1786              	
 1787 1254 0000828F 		lw	$2,%gp_rel(_libc_data)($28)
 1788 1258 0400428C 		lw	$2,4($2)
 1789 125c 3A000424 		li	$4,58			# 0x3a
 1790 1260 21284000 		move	$5,$2
 1791 1264 0000000C 		jal	fputc
 1792 1268 00000000 		nop
 1793              	
 1794 126c 0400828F 		lw	$2,%gp_rel(Unity+4)($28)
GAS LISTING C:\Users\Piotrek\AppData\Local\Temp\cc9LOeNg.s 			page 34


 1795 1270 21204000 		move	$4,$2
 1796 1274 0000000C 		jal	UnityPrint
 1797 1278 00000000 		nop
 1798              	
 1799 127c 0000828F 		lw	$2,%gp_rel(_libc_data)($28)
 1800 1280 0400428C 		lw	$2,4($2)
 1801 1284 3A000424 		li	$4,58			# 0x3a
 1802 1288 21284000 		move	$5,$2
 1803 128c 0000000C 		jal	fputc
 1804 1290 00000000 		nop
 1805              	
 1806 1294 21E8C003 		move	$sp,$fp
 1807 1298 1400BF8F 		lw	$31,20($sp)
 1808 129c 1000BE8F 		lw	$fp,16($sp)
 1809 12a0 1800BD27 		addiu	$sp,$sp,24
 1810 12a4 0800E003 		j	$31
 1811 12a8 00000000 		nop
 1812              	
 1813              		.set	macro
 1814              		.set	reorder
 1815              	# Begin mchp_output_function_epilogue
 1816              	# End mchp_output_function_epilogue
 1817              		.end	UnityTestResultsBegin
 1818              		.size	UnityTestResultsBegin, .-UnityTestResultsBegin
 1819              		.align	2
 1820              		.set	nomips16
 1821              		.set	nomicromips
 1822              		.ent	UnityTestResultsFailBegin
 1823              		.type	UnityTestResultsFailBegin, @function
 1824              	UnityTestResultsFailBegin:
 1825              		.frame	$fp,24,$31		# vars= 0, regs= 2/0, args= 16, gp= 0
 1826              		.mask	0xc0000000,-4
 1827              		.fmask	0x00000000,0
 1828              		.set	noreorder
 1829              		.set	nomacro
 1830              	# End mchp_output_function_prologue
 1831 12ac E8FFBD27 		addiu	$sp,$sp,-24
 1832 12b0 1400BFAF 		sw	$31,20($sp)
 1833 12b4 1000BEAF 		sw	$fp,16($sp)
 1834 12b8 21F0A003 		move	$fp,$sp
 1835 12bc 1800C4AF 		sw	$4,24($fp)
 1836 12c0 0000828F 		lw	$2,%gp_rel(Unity)($28)
 1837 12c4 21204000 		move	$4,$2
 1838 12c8 1800C58F 		lw	$5,24($fp)
 1839 12cc 8204000C 		jal	UnityTestResultsBegin
 1840 12d0 00000000 		nop
 1841              	
 1842 12d4 0000023C 		lui	$2,%hi(UnityStrFail)
 1843 12d8 00004424 		addiu	$4,$2,%lo(UnityStrFail)
 1844 12dc 0000000C 		jal	UnityPrint
 1845 12e0 00000000 		nop
 1846              	
 1847 12e4 0000828F 		lw	$2,%gp_rel(_libc_data)($28)
 1848 12e8 0400428C 		lw	$2,4($2)
 1849 12ec 3A000424 		li	$4,58			# 0x3a
 1850 12f0 21284000 		move	$5,$2
 1851 12f4 0000000C 		jal	fputc
GAS LISTING C:\Users\Piotrek\AppData\Local\Temp\cc9LOeNg.s 			page 35


 1852 12f8 00000000 		nop
 1853              	
 1854 12fc 21E8C003 		move	$sp,$fp
 1855 1300 1400BF8F 		lw	$31,20($sp)
 1856 1304 1000BE8F 		lw	$fp,16($sp)
 1857 1308 1800BD27 		addiu	$sp,$sp,24
 1858 130c 0800E003 		j	$31
 1859 1310 00000000 		nop
 1860              	
 1861              		.set	macro
 1862              		.set	reorder
 1863              	# Begin mchp_output_function_epilogue
 1864              	# End mchp_output_function_epilogue
 1865              		.end	UnityTestResultsFailBegin
 1866              		.size	UnityTestResultsFailBegin, .-UnityTestResultsFailBegin
 1867              		.align	2
 1868              		.globl	UnityConcludeTest
 1869              		.set	nomips16
 1870              		.set	nomicromips
 1871              		.ent	UnityConcludeTest
 1872              		.type	UnityConcludeTest, @function
 1873              	UnityConcludeTest:
 1874              		.frame	$fp,24,$31		# vars= 0, regs= 2/0, args= 16, gp= 0
 1875              		.mask	0xc0000000,-4
 1876              		.fmask	0x00000000,0
 1877              		.set	noreorder
 1878              		.set	nomacro
 1879              	# End mchp_output_function_prologue
 1880 1314 E8FFBD27 		addiu	$sp,$sp,-24
 1881 1318 1400BFAF 		sw	$31,20($sp)
 1882 131c 1000BEAF 		sw	$fp,16($sp)
 1883 1320 21F0A003 		move	$fp,$sp
 1884 1324 2400828F 		lw	$2,%gp_rel(Unity+36)($28)
 1885 1328 06004010 		beq	$2,$0,.L96
 1886 132c 00000000 		nop
 1887              	
 1888 1330 1C00828F 		lw	$2,%gp_rel(Unity+28)($28)
 1889 1334 01004224 		addiu	$2,$2,1
 1890 1338 1C0082AF 		sw	$2,%gp_rel(Unity+28)($28)
 1891 133c E3040008 		j	.L97
 1892 1340 00000000 		nop
 1893              	
 1894              	.L96:
 1895 1344 2000828F 		lw	$2,%gp_rel(Unity+32)($28)
 1896 1348 0D004014 		bne	$2,$0,.L98
 1897 134c 00000000 		nop
 1898              	
 1899 1350 0000838F 		lw	$3,%gp_rel(Unity)($28)
 1900 1354 1000828F 		lw	$2,%gp_rel(Unity+16)($28)
 1901 1358 21206000 		move	$4,$3
 1902 135c 21284000 		move	$5,$2
 1903 1360 8204000C 		jal	UnityTestResultsBegin
 1904 1364 00000000 		nop
 1905              	
 1906 1368 0000023C 		lui	$2,%hi(UnityStrPass)
 1907 136c 00004424 		addiu	$4,$2,%lo(UnityStrPass)
 1908 1370 0000000C 		jal	UnityPrint
GAS LISTING C:\Users\Piotrek\AppData\Local\Temp\cc9LOeNg.s 			page 36


 1909 1374 00000000 		nop
 1910              	
 1911 1378 E3040008 		j	.L97
 1912 137c 00000000 		nop
 1913              	
 1914              	.L98:
 1915 1380 1800828F 		lw	$2,%gp_rel(Unity+24)($28)
 1916 1384 01004224 		addiu	$2,$2,1
 1917 1388 180082AF 		sw	$2,%gp_rel(Unity+24)($28)
 1918              	.L97:
 1919 138c 200080AF 		sw	$0,%gp_rel(Unity+32)($28)
 1920 1390 240080AF 		sw	$0,%gp_rel(Unity+36)($28)
 1921 1394 0000828F 		lw	$2,%gp_rel(_libc_data)($28)
 1922 1398 0400428C 		lw	$2,4($2)
 1923 139c 0A000424 		li	$4,10			# 0xa
 1924 13a0 21284000 		move	$5,$2
 1925 13a4 0000000C 		jal	fputc
 1926 13a8 00000000 		nop
 1927              	
 1928 13ac 21E8C003 		move	$sp,$fp
 1929 13b0 1400BF8F 		lw	$31,20($sp)
 1930 13b4 1000BE8F 		lw	$fp,16($sp)
 1931 13b8 1800BD27 		addiu	$sp,$sp,24
 1932 13bc 0800E003 		j	$31
 1933 13c0 00000000 		nop
 1934              	
 1935              		.set	macro
 1936              		.set	reorder
 1937              	# Begin mchp_output_function_epilogue
 1938              	# End mchp_output_function_epilogue
 1939              		.end	UnityConcludeTest
 1940              		.size	UnityConcludeTest, .-UnityConcludeTest
 1941              		.align	2
 1942              		.set	nomips16
 1943              		.set	nomicromips
 1944              		.ent	UnityAddMsgIfSpecified
 1945              		.type	UnityAddMsgIfSpecified, @function
 1946              	UnityAddMsgIfSpecified:
 1947              		.frame	$fp,24,$31		# vars= 0, regs= 2/0, args= 16, gp= 0
 1948              		.mask	0xc0000000,-4
 1949              		.fmask	0x00000000,0
 1950              		.set	noreorder
 1951              		.set	nomacro
 1952              	# End mchp_output_function_prologue
 1953 13c4 E8FFBD27 		addiu	$sp,$sp,-24
 1954 13c8 1400BFAF 		sw	$31,20($sp)
 1955 13cc 1000BEAF 		sw	$fp,16($sp)
 1956 13d0 21F0A003 		move	$fp,$sp
 1957 13d4 1800C4AF 		sw	$4,24($fp)
 1958 13d8 1800C28F 		lw	$2,24($fp)
 1959 13dc 22004010 		beq	$2,$0,.L99
 1960 13e0 00000000 		nop
 1961              	
 1962 13e4 0000023C 		lui	$2,%hi(UnityStrSpacer)
 1963 13e8 24004424 		addiu	$4,$2,%lo(UnityStrSpacer)
 1964 13ec 0000000C 		jal	UnityPrint
 1965 13f0 00000000 		nop
GAS LISTING C:\Users\Piotrek\AppData\Local\Temp\cc9LOeNg.s 			page 37


 1966              	
 1967 13f4 0800828F 		lw	$2,%gp_rel(Unity+8)($28)
 1968 13f8 18004010 		beq	$2,$0,.L101
 1969 13fc 00000000 		nop
 1970              	
 1971 1400 0000023C 		lui	$2,%hi(UnityStrDetail1Name)
 1972 1404 50024424 		addiu	$4,$2,%lo(UnityStrDetail1Name)
 1973 1408 0000000C 		jal	UnityPrint
 1974 140c 00000000 		nop
 1975              	
 1976 1410 0800828F 		lw	$2,%gp_rel(Unity+8)($28)
 1977 1414 21204000 		move	$4,$2
 1978 1418 0000000C 		jal	UnityPrint
 1979 141c 00000000 		nop
 1980              	
 1981 1420 0C00828F 		lw	$2,%gp_rel(Unity+12)($28)
 1982 1424 09004010 		beq	$2,$0,.L102
 1983 1428 00000000 		nop
 1984              	
 1985 142c 0000023C 		lui	$2,%hi(UnityStrDetail2Name)
 1986 1430 5C024424 		addiu	$4,$2,%lo(UnityStrDetail2Name)
 1987 1434 0000000C 		jal	UnityPrint
 1988 1438 00000000 		nop
 1989              	
 1990 143c 0C00828F 		lw	$2,%gp_rel(Unity+12)($28)
 1991 1440 21204000 		move	$4,$2
 1992 1444 0000000C 		jal	UnityPrint
 1993 1448 00000000 		nop
 1994              	
 1995              	.L102:
 1996 144c 0000023C 		lui	$2,%hi(UnityStrSpacer)
 1997 1450 24004424 		addiu	$4,$2,%lo(UnityStrSpacer)
 1998 1454 0000000C 		jal	UnityPrint
 1999 1458 00000000 		nop
 2000              	
 2001              	.L101:
 2002 145c 1800C48F 		lw	$4,24($fp)
 2003 1460 0000000C 		jal	UnityPrint
 2004 1464 00000000 		nop
 2005              	
 2006              	.L99:
 2007 1468 21E8C003 		move	$sp,$fp
 2008 146c 1400BF8F 		lw	$31,20($sp)
 2009 1470 1000BE8F 		lw	$fp,16($sp)
 2010 1474 1800BD27 		addiu	$sp,$sp,24
 2011 1478 0800E003 		j	$31
 2012 147c 00000000 		nop
 2013              	
 2014              		.set	macro
 2015              		.set	reorder
 2016              	# Begin mchp_output_function_epilogue
 2017              	# End mchp_output_function_epilogue
 2018              		.end	UnityAddMsgIfSpecified
 2019              		.size	UnityAddMsgIfSpecified, .-UnityAddMsgIfSpecified
 2020              		.align	2
 2021              		.set	nomips16
 2022              		.set	nomicromips
GAS LISTING C:\Users\Piotrek\AppData\Local\Temp\cc9LOeNg.s 			page 38


 2023              		.ent	UnityPrintExpectedAndActualStrings
 2024              		.type	UnityPrintExpectedAndActualStrings, @function
 2025              	UnityPrintExpectedAndActualStrings:
 2026              		.frame	$fp,24,$31		# vars= 0, regs= 2/0, args= 16, gp= 0
 2027              		.mask	0xc0000000,-4
 2028              		.fmask	0x00000000,0
 2029              		.set	noreorder
 2030              		.set	nomacro
 2031              	# End mchp_output_function_prologue
 2032 1480 E8FFBD27 		addiu	$sp,$sp,-24
 2033 1484 1400BFAF 		sw	$31,20($sp)
 2034 1488 1000BEAF 		sw	$fp,16($sp)
 2035 148c 21F0A003 		move	$fp,$sp
 2036 1490 1800C4AF 		sw	$4,24($fp)
 2037 1494 1C00C5AF 		sw	$5,28($fp)
 2038 1498 0000023C 		lui	$2,%hi(UnityStrExpected)
 2039 149c 28004424 		addiu	$4,$2,%lo(UnityStrExpected)
 2040 14a0 0000000C 		jal	UnityPrint
 2041 14a4 00000000 		nop
 2042              	
 2043 14a8 1800C28F 		lw	$2,24($fp)
 2044 14ac 12004010 		beq	$2,$0,.L104
 2045 14b0 00000000 		nop
 2046              	
 2047 14b4 0000828F 		lw	$2,%gp_rel(_libc_data)($28)
 2048 14b8 0400428C 		lw	$2,4($2)
 2049 14bc 27000424 		li	$4,39			# 0x27
 2050 14c0 21284000 		move	$5,$2
 2051 14c4 0000000C 		jal	fputc
 2052 14c8 00000000 		nop
 2053              	
 2054 14cc 1800C48F 		lw	$4,24($fp)
 2055 14d0 0000000C 		jal	UnityPrint
 2056 14d4 00000000 		nop
 2057              	
 2058 14d8 0000828F 		lw	$2,%gp_rel(_libc_data)($28)
 2059 14dc 0400428C 		lw	$2,4($2)
 2060 14e0 27000424 		li	$4,39			# 0x27
 2061 14e4 21284000 		move	$5,$2
 2062 14e8 0000000C 		jal	fputc
 2063 14ec 00000000 		nop
 2064              	
 2065 14f0 42050008 		j	.L105
 2066 14f4 00000000 		nop
 2067              	
 2068              	.L104:
 2069 14f8 0000023C 		lui	$2,%hi(UnityStrNull)
 2070 14fc 1C004424 		addiu	$4,$2,%lo(UnityStrNull)
 2071 1500 0000000C 		jal	UnityPrint
 2072 1504 00000000 		nop
 2073              	
 2074              	.L105:
 2075 1508 0000023C 		lui	$2,%hi(UnityStrWas)
 2076 150c 34004424 		addiu	$4,$2,%lo(UnityStrWas)
 2077 1510 0000000C 		jal	UnityPrint
 2078 1514 00000000 		nop
 2079              	
GAS LISTING C:\Users\Piotrek\AppData\Local\Temp\cc9LOeNg.s 			page 39


 2080 1518 1C00C28F 		lw	$2,28($fp)
 2081 151c 12004010 		beq	$2,$0,.L106
 2082 1520 00000000 		nop
 2083              	
 2084 1524 0000828F 		lw	$2,%gp_rel(_libc_data)($28)
 2085 1528 0400428C 		lw	$2,4($2)
 2086 152c 27000424 		li	$4,39			# 0x27
 2087 1530 21284000 		move	$5,$2
 2088 1534 0000000C 		jal	fputc
 2089 1538 00000000 		nop
 2090              	
 2091 153c 1C00C48F 		lw	$4,28($fp)
 2092 1540 0000000C 		jal	UnityPrint
 2093 1544 00000000 		nop
 2094              	
 2095 1548 0000828F 		lw	$2,%gp_rel(_libc_data)($28)
 2096 154c 0400428C 		lw	$2,4($2)
 2097 1550 27000424 		li	$4,39			# 0x27
 2098 1554 21284000 		move	$5,$2
 2099 1558 0000000C 		jal	fputc
 2100 155c 00000000 		nop
 2101              	
 2102 1560 5E050008 		j	.L103
 2103 1564 00000000 		nop
 2104              	
 2105              	.L106:
 2106 1568 0000023C 		lui	$2,%hi(UnityStrNull)
 2107 156c 1C004424 		addiu	$4,$2,%lo(UnityStrNull)
 2108 1570 0000000C 		jal	UnityPrint
 2109 1574 00000000 		nop
 2110              	
 2111              	.L103:
 2112 1578 21E8C003 		move	$sp,$fp
 2113 157c 1400BF8F 		lw	$31,20($sp)
 2114 1580 1000BE8F 		lw	$fp,16($sp)
 2115 1584 1800BD27 		addiu	$sp,$sp,24
 2116 1588 0800E003 		j	$31
 2117 158c 00000000 		nop
 2118              	
 2119              		.set	macro
 2120              		.set	reorder
 2121              	# Begin mchp_output_function_epilogue
 2122              	# End mchp_output_function_epilogue
 2123              		.end	UnityPrintExpectedAndActualStrings
 2124              		.size	UnityPrintExpectedAndActualStrings, .-UnityPrintExpectedAndActualStrings
 2125              		.align	2
 2126              		.set	nomips16
 2127              		.set	nomicromips
 2128              		.ent	UnityPrintExpectedAndActualStringsLen
 2129              		.type	UnityPrintExpectedAndActualStringsLen, @function
 2130              	UnityPrintExpectedAndActualStringsLen:
 2131              		.frame	$fp,24,$31		# vars= 0, regs= 2/0, args= 16, gp= 0
 2132              		.mask	0xc0000000,-4
 2133              		.fmask	0x00000000,0
 2134              		.set	noreorder
 2135              		.set	nomacro
 2136              	# End mchp_output_function_prologue
GAS LISTING C:\Users\Piotrek\AppData\Local\Temp\cc9LOeNg.s 			page 40


 2137 1590 E8FFBD27 		addiu	$sp,$sp,-24
 2138 1594 1400BFAF 		sw	$31,20($sp)
 2139 1598 1000BEAF 		sw	$fp,16($sp)
 2140 159c 21F0A003 		move	$fp,$sp
 2141 15a0 1800C4AF 		sw	$4,24($fp)
 2142 15a4 1C00C5AF 		sw	$5,28($fp)
 2143 15a8 2000C6AF 		sw	$6,32($fp)
 2144 15ac 0000023C 		lui	$2,%hi(UnityStrExpected)
 2145 15b0 28004424 		addiu	$4,$2,%lo(UnityStrExpected)
 2146 15b4 0000000C 		jal	UnityPrint
 2147 15b8 00000000 		nop
 2148              	
 2149 15bc 1800C28F 		lw	$2,24($fp)
 2150 15c0 13004010 		beq	$2,$0,.L109
 2151 15c4 00000000 		nop
 2152              	
 2153 15c8 0000828F 		lw	$2,%gp_rel(_libc_data)($28)
 2154 15cc 0400428C 		lw	$2,4($2)
 2155 15d0 27000424 		li	$4,39			# 0x27
 2156 15d4 21284000 		move	$5,$2
 2157 15d8 0000000C 		jal	fputc
 2158 15dc 00000000 		nop
 2159              	
 2160 15e0 1800C48F 		lw	$4,24($fp)
 2161 15e4 2000C58F 		lw	$5,32($fp)
 2162 15e8 0000000C 		jal	UnityPrintLen
 2163 15ec 00000000 		nop
 2164              	
 2165 15f0 0000828F 		lw	$2,%gp_rel(_libc_data)($28)
 2166 15f4 0400428C 		lw	$2,4($2)
 2167 15f8 27000424 		li	$4,39			# 0x27
 2168 15fc 21284000 		move	$5,$2
 2169 1600 0000000C 		jal	fputc
 2170 1604 00000000 		nop
 2171              	
 2172 1608 88050008 		j	.L110
 2173 160c 00000000 		nop
 2174              	
 2175              	.L109:
 2176 1610 0000023C 		lui	$2,%hi(UnityStrNull)
 2177 1614 1C004424 		addiu	$4,$2,%lo(UnityStrNull)
 2178 1618 0000000C 		jal	UnityPrint
 2179 161c 00000000 		nop
 2180              	
 2181              	.L110:
 2182 1620 0000023C 		lui	$2,%hi(UnityStrWas)
 2183 1624 34004424 		addiu	$4,$2,%lo(UnityStrWas)
 2184 1628 0000000C 		jal	UnityPrint
 2185 162c 00000000 		nop
 2186              	
 2187 1630 1C00C28F 		lw	$2,28($fp)
 2188 1634 13004010 		beq	$2,$0,.L111
 2189 1638 00000000 		nop
 2190              	
 2191 163c 0000828F 		lw	$2,%gp_rel(_libc_data)($28)
 2192 1640 0400428C 		lw	$2,4($2)
 2193 1644 27000424 		li	$4,39			# 0x27
GAS LISTING C:\Users\Piotrek\AppData\Local\Temp\cc9LOeNg.s 			page 41


 2194 1648 21284000 		move	$5,$2
 2195 164c 0000000C 		jal	fputc
 2196 1650 00000000 		nop
 2197              	
 2198 1654 1C00C48F 		lw	$4,28($fp)
 2199 1658 2000C58F 		lw	$5,32($fp)
 2200 165c 0000000C 		jal	UnityPrintLen
 2201 1660 00000000 		nop
 2202              	
 2203 1664 0000828F 		lw	$2,%gp_rel(_libc_data)($28)
 2204 1668 0400428C 		lw	$2,4($2)
 2205 166c 27000424 		li	$4,39			# 0x27
 2206 1670 21284000 		move	$5,$2
 2207 1674 0000000C 		jal	fputc
 2208 1678 00000000 		nop
 2209              	
 2210 167c A5050008 		j	.L108
 2211 1680 00000000 		nop
 2212              	
 2213              	.L111:
 2214 1684 0000023C 		lui	$2,%hi(UnityStrNull)
 2215 1688 1C004424 		addiu	$4,$2,%lo(UnityStrNull)
 2216 168c 0000000C 		jal	UnityPrint
 2217 1690 00000000 		nop
 2218              	
 2219              	.L108:
 2220 1694 21E8C003 		move	$sp,$fp
 2221 1698 1400BF8F 		lw	$31,20($sp)
 2222 169c 1000BE8F 		lw	$fp,16($sp)
 2223 16a0 1800BD27 		addiu	$sp,$sp,24
 2224 16a4 0800E003 		j	$31
 2225 16a8 00000000 		nop
 2226              	
 2227              		.set	macro
 2228              		.set	reorder
 2229              	# Begin mchp_output_function_epilogue
 2230              	# End mchp_output_function_epilogue
 2231              		.end	UnityPrintExpectedAndActualStringsLen
 2232              		.size	UnityPrintExpectedAndActualStringsLen, .-UnityPrintExpectedAndActualStringsLen
 2233              		.align	2
 2234              		.set	nomips16
 2235              		.set	nomicromips
 2236              		.ent	UnityIsOneArrayNull
 2237              		.type	UnityIsOneArrayNull, @function
 2238              	UnityIsOneArrayNull:
 2239              		.frame	$fp,24,$31		# vars= 0, regs= 2/0, args= 16, gp= 0
 2240              		.mask	0xc0000000,-4
 2241              		.fmask	0x00000000,0
 2242              		.set	noreorder
 2243              		.set	nomacro
 2244              	# End mchp_output_function_prologue
 2245 16ac E8FFBD27 		addiu	$sp,$sp,-24
 2246 16b0 1400BFAF 		sw	$31,20($sp)
 2247 16b4 1000BEAF 		sw	$fp,16($sp)
 2248 16b8 21F0A003 		move	$fp,$sp
 2249 16bc 1800C4AF 		sw	$4,24($fp)
 2250 16c0 1C00C5AF 		sw	$5,28($fp)
GAS LISTING C:\Users\Piotrek\AppData\Local\Temp\cc9LOeNg.s 			page 42


 2251 16c4 2000C6AF 		sw	$6,32($fp)
 2252 16c8 2400C7AF 		sw	$7,36($fp)
 2253 16cc 1800C38F 		lw	$3,24($fp)
 2254 16d0 1C00C28F 		lw	$2,28($fp)
 2255 16d4 04006214 		bne	$3,$2,.L114
 2256 16d8 00000000 		nop
 2257              	
 2258 16dc 21100000 		move	$2,$0
 2259 16e0 DB050008 		j	.L115
 2260 16e4 00000000 		nop
 2261              	
 2262              	.L114:
 2263 16e8 1800C28F 		lw	$2,24($fp)
 2264 16ec 0E004014 		bne	$2,$0,.L116
 2265 16f0 00000000 		nop
 2266              	
 2267 16f4 2000C48F 		lw	$4,32($fp)
 2268 16f8 AB04000C 		jal	UnityTestResultsFailBegin
 2269 16fc 00000000 		nop
 2270              	
 2271 1700 0000023C 		lui	$2,%hi(UnityStrNullPointerForExpected)
 2272 1704 0C014424 		addiu	$4,$2,%lo(UnityStrNullPointerForExpected)
 2273 1708 0000000C 		jal	UnityPrint
 2274 170c 00000000 		nop
 2275              	
 2276 1710 2400C48F 		lw	$4,36($fp)
 2277 1714 F104000C 		jal	UnityAddMsgIfSpecified
 2278 1718 00000000 		nop
 2279              	
 2280 171c 01000224 		li	$2,1			# 0x1
 2281 1720 DB050008 		j	.L115
 2282 1724 00000000 		nop
 2283              	
 2284              	.L116:
 2285 1728 1C00C28F 		lw	$2,28($fp)
 2286 172c 0E004014 		bne	$2,$0,.L117
 2287 1730 00000000 		nop
 2288              	
 2289 1734 2000C48F 		lw	$4,32($fp)
 2290 1738 AB04000C 		jal	UnityTestResultsFailBegin
 2291 173c 00000000 		nop
 2292              	
 2293 1740 0000023C 		lui	$2,%hi(UnityStrNullPointerForActual)
 2294 1744 2C014424 		addiu	$4,$2,%lo(UnityStrNullPointerForActual)
 2295 1748 0000000C 		jal	UnityPrint
 2296 174c 00000000 		nop
 2297              	
 2298 1750 2400C48F 		lw	$4,36($fp)
 2299 1754 F104000C 		jal	UnityAddMsgIfSpecified
 2300 1758 00000000 		nop
 2301              	
 2302 175c 01000224 		li	$2,1			# 0x1
 2303 1760 DB050008 		j	.L115
 2304 1764 00000000 		nop
 2305              	
 2306              	.L117:
 2307 1768 21100000 		move	$2,$0
GAS LISTING C:\Users\Piotrek\AppData\Local\Temp\cc9LOeNg.s 			page 43


 2308              	.L115:
 2309 176c 21E8C003 		move	$sp,$fp
 2310 1770 1400BF8F 		lw	$31,20($sp)
 2311 1774 1000BE8F 		lw	$fp,16($sp)
 2312 1778 1800BD27 		addiu	$sp,$sp,24
 2313 177c 0800E003 		j	$31
 2314 1780 00000000 		nop
 2315              	
 2316              		.set	macro
 2317              		.set	reorder
 2318              	# Begin mchp_output_function_epilogue
 2319              	# End mchp_output_function_epilogue
 2320              		.end	UnityIsOneArrayNull
 2321              		.size	UnityIsOneArrayNull, .-UnityIsOneArrayNull
 2322              		.align	2
 2323              		.globl	UnityAssertBits
 2324              		.set	nomips16
 2325              		.set	nomicromips
 2326              		.ent	UnityAssertBits
 2327              		.type	UnityAssertBits, @function
 2328              	UnityAssertBits:
 2329              		.frame	$fp,24,$31		# vars= 0, regs= 2/0, args= 16, gp= 0
 2330              		.mask	0xc0000000,-4
 2331              		.fmask	0x00000000,0
 2332              		.set	noreorder
 2333              		.set	nomacro
 2334              	# End mchp_output_function_prologue
 2335 1784 E8FFBD27 		addiu	$sp,$sp,-24
 2336 1788 1400BFAF 		sw	$31,20($sp)
 2337 178c 1000BEAF 		sw	$fp,16($sp)
 2338 1790 21F0A003 		move	$fp,$sp
 2339 1794 1800C4AF 		sw	$4,24($fp)
 2340 1798 1C00C5AF 		sw	$5,28($fp)
 2341 179c 2000C6AF 		sw	$6,32($fp)
 2342 17a0 2400C7AF 		sw	$7,36($fp)
 2343 17a4 2000828F 		lw	$2,%gp_rel(Unity+32)($28)
 2344 17a8 04004014 		bne	$2,$0,.L119
 2345 17ac 00000000 		nop
 2346              	
 2347 17b0 2400828F 		lw	$2,%gp_rel(Unity+36)($28)
 2348 17b4 05004010 		beq	$2,$0,.L120
 2349 17b8 00000000 		nop
 2350              	
 2351              	.L119:
 2352 17bc 28008427 		addiu	$4,$28,%gp_rel(Unity+40)
 2353 17c0 01000524 		li	$5,1			# 0x1
 2354 17c4 0000000C 		jal	longjmp
 2355 17c8 00000000 		nop
 2356              	
 2357              	.L120:
 2358 17cc 1C00C38F 		lw	$3,28($fp)
 2359 17d0 2000C28F 		lw	$2,32($fp)
 2360 17d4 26186200 		xor	$3,$3,$2
 2361 17d8 1800C28F 		lw	$2,24($fp)
 2362 17dc 24106200 		and	$2,$3,$2
 2363 17e0 21004010 		beq	$2,$0,.L118
 2364 17e4 00000000 		nop
GAS LISTING C:\Users\Piotrek\AppData\Local\Temp\cc9LOeNg.s 			page 44


 2365              	
 2366 17e8 2800C48F 		lw	$4,40($fp)
 2367 17ec AB04000C 		jal	UnityTestResultsFailBegin
 2368 17f0 00000000 		nop
 2369              	
 2370 17f4 0000023C 		lui	$2,%hi(UnityStrExpected)
 2371 17f8 28004424 		addiu	$4,$2,%lo(UnityStrExpected)
 2372 17fc 0000000C 		jal	UnityPrint
 2373 1800 00000000 		nop
 2374              	
 2375 1804 1800C38F 		lw	$3,24($fp)
 2376 1808 1C00C28F 		lw	$2,28($fp)
 2377 180c 21206000 		move	$4,$3
 2378 1810 21284000 		move	$5,$2
 2379 1814 0000000C 		jal	UnityPrintMask
 2380 1818 00000000 		nop
 2381              	
 2382 181c 0000023C 		lui	$2,%hi(UnityStrWas)
 2383 1820 34004424 		addiu	$4,$2,%lo(UnityStrWas)
 2384 1824 0000000C 		jal	UnityPrint
 2385 1828 00000000 		nop
 2386              	
 2387 182c 1800C38F 		lw	$3,24($fp)
 2388 1830 2000C28F 		lw	$2,32($fp)
 2389 1834 21206000 		move	$4,$3
 2390 1838 21284000 		move	$5,$2
 2391 183c 0000000C 		jal	UnityPrintMask
 2392 1840 00000000 		nop
 2393              	
 2394 1844 2400C48F 		lw	$4,36($fp)
 2395 1848 F104000C 		jal	UnityAddMsgIfSpecified
 2396 184c 00000000 		nop
 2397              	
 2398 1850 01000224 		li	$2,1			# 0x1
 2399 1854 200082AF 		sw	$2,%gp_rel(Unity+32)($28)
 2400 1858 28008427 		addiu	$4,$28,%gp_rel(Unity+40)
 2401 185c 01000524 		li	$5,1			# 0x1
 2402 1860 0000000C 		jal	longjmp
 2403 1864 00000000 		nop
 2404              	
 2405              	.L118:
 2406 1868 21E8C003 		move	$sp,$fp
 2407 186c 1400BF8F 		lw	$31,20($sp)
 2408 1870 1000BE8F 		lw	$fp,16($sp)
 2409 1874 1800BD27 		addiu	$sp,$sp,24
 2410 1878 0800E003 		j	$31
 2411 187c 00000000 		nop
 2412              	
 2413              		.set	macro
 2414              		.set	reorder
 2415              	# Begin mchp_output_function_epilogue
 2416              	# End mchp_output_function_epilogue
 2417              		.end	UnityAssertBits
 2418              		.size	UnityAssertBits, .-UnityAssertBits
 2419              		.align	2
 2420              		.globl	UnityAssertEqualNumber
 2421              		.set	nomips16
GAS LISTING C:\Users\Piotrek\AppData\Local\Temp\cc9LOeNg.s 			page 45


 2422              		.set	nomicromips
 2423              		.ent	UnityAssertEqualNumber
 2424              		.type	UnityAssertEqualNumber, @function
 2425              	UnityAssertEqualNumber:
 2426              		.frame	$fp,24,$31		# vars= 0, regs= 2/0, args= 16, gp= 0
 2427              		.mask	0xc0000000,-4
 2428              		.fmask	0x00000000,0
 2429              		.set	noreorder
 2430              		.set	nomacro
 2431              	# End mchp_output_function_prologue
 2432 1880 E8FFBD27 		addiu	$sp,$sp,-24
 2433 1884 1400BFAF 		sw	$31,20($sp)
 2434 1888 1000BEAF 		sw	$fp,16($sp)
 2435 188c 21F0A003 		move	$fp,$sp
 2436 1890 1800C4AF 		sw	$4,24($fp)
 2437 1894 1C00C5AF 		sw	$5,28($fp)
 2438 1898 2000C6AF 		sw	$6,32($fp)
 2439 189c 2400C7AF 		sw	$7,36($fp)
 2440 18a0 2000828F 		lw	$2,%gp_rel(Unity+32)($28)
 2441 18a4 04004014 		bne	$2,$0,.L123
 2442 18a8 00000000 		nop
 2443              	
 2444 18ac 2400828F 		lw	$2,%gp_rel(Unity+36)($28)
 2445 18b0 05004010 		beq	$2,$0,.L124
 2446 18b4 00000000 		nop
 2447              	
 2448              	.L123:
 2449 18b8 28008427 		addiu	$4,$28,%gp_rel(Unity+40)
 2450 18bc 01000524 		li	$5,1			# 0x1
 2451 18c0 0000000C 		jal	longjmp
 2452 18c4 00000000 		nop
 2453              	
 2454              	.L124:
 2455 18c8 1800C38F 		lw	$3,24($fp)
 2456 18cc 1C00C28F 		lw	$2,28($fp)
 2457 18d0 1D006210 		beq	$3,$2,.L122
 2458 18d4 00000000 		nop
 2459              	
 2460 18d8 2400C48F 		lw	$4,36($fp)
 2461 18dc AB04000C 		jal	UnityTestResultsFailBegin
 2462 18e0 00000000 		nop
 2463              	
 2464 18e4 0000023C 		lui	$2,%hi(UnityStrExpected)
 2465 18e8 28004424 		addiu	$4,$2,%lo(UnityStrExpected)
 2466 18ec 0000000C 		jal	UnityPrint
 2467 18f0 00000000 		nop
 2468              	
 2469 18f4 1800C48F 		lw	$4,24($fp)
 2470 18f8 2800C58F 		lw	$5,40($fp)
 2471 18fc 0000000C 		jal	UnityPrintNumberByStyle
 2472 1900 00000000 		nop
 2473              	
 2474 1904 0000023C 		lui	$2,%hi(UnityStrWas)
 2475 1908 34004424 		addiu	$4,$2,%lo(UnityStrWas)
 2476 190c 0000000C 		jal	UnityPrint
 2477 1910 00000000 		nop
 2478              	
GAS LISTING C:\Users\Piotrek\AppData\Local\Temp\cc9LOeNg.s 			page 46


 2479 1914 1C00C48F 		lw	$4,28($fp)
 2480 1918 2800C58F 		lw	$5,40($fp)
 2481 191c 0000000C 		jal	UnityPrintNumberByStyle
 2482 1920 00000000 		nop
 2483              	
 2484 1924 2000C48F 		lw	$4,32($fp)
 2485 1928 F104000C 		jal	UnityAddMsgIfSpecified
 2486 192c 00000000 		nop
 2487              	
 2488 1930 01000224 		li	$2,1			# 0x1
 2489 1934 200082AF 		sw	$2,%gp_rel(Unity+32)($28)
 2490 1938 28008427 		addiu	$4,$28,%gp_rel(Unity+40)
 2491 193c 01000524 		li	$5,1			# 0x1
 2492 1940 0000000C 		jal	longjmp
 2493 1944 00000000 		nop
 2494              	
 2495              	.L122:
 2496 1948 21E8C003 		move	$sp,$fp
 2497 194c 1400BF8F 		lw	$31,20($sp)
 2498 1950 1000BE8F 		lw	$fp,16($sp)
 2499 1954 1800BD27 		addiu	$sp,$sp,24
 2500 1958 0800E003 		j	$31
 2501 195c 00000000 		nop
 2502              	
 2503              		.set	macro
 2504              		.set	reorder
 2505              	# Begin mchp_output_function_epilogue
 2506              	# End mchp_output_function_epilogue
 2507              		.end	UnityAssertEqualNumber
 2508              		.size	UnityAssertEqualNumber, .-UnityAssertEqualNumber
 2509              		.align	2
 2510              		.globl	UnityAssertGreaterOrLessOrEqualNumber
 2511              		.set	nomips16
 2512              		.set	nomicromips
 2513              		.ent	UnityAssertGreaterOrLessOrEqualNumber
 2514              		.type	UnityAssertGreaterOrLessOrEqualNumber, @function
 2515              	UnityAssertGreaterOrLessOrEqualNumber:
 2516              		.frame	$fp,32,$31		# vars= 8, regs= 2/0, args= 16, gp= 0
 2517              		.mask	0xc0000000,-4
 2518              		.fmask	0x00000000,0
 2519              		.set	noreorder
 2520              		.set	nomacro
 2521              	# End mchp_output_function_prologue
 2522 1960 E0FFBD27 		addiu	$sp,$sp,-32
 2523 1964 1C00BFAF 		sw	$31,28($sp)
 2524 1968 1800BEAF 		sw	$fp,24($sp)
 2525 196c 21F0A003 		move	$fp,$sp
 2526 1970 2000C4AF 		sw	$4,32($fp)
 2527 1974 2400C5AF 		sw	$5,36($fp)
 2528 1978 2800C6AF 		sw	$6,40($fp)
 2529 197c 2C00C7AF 		sw	$7,44($fp)
 2530 1980 1000C0AF 		sw	$0,16($fp)
 2531 1984 2000828F 		lw	$2,%gp_rel(Unity+32)($28)
 2532 1988 04004014 		bne	$2,$0,.L127
 2533 198c 00000000 		nop
 2534              	
 2535 1990 2400828F 		lw	$2,%gp_rel(Unity+36)($28)
GAS LISTING C:\Users\Piotrek\AppData\Local\Temp\cc9LOeNg.s 			page 47


 2536 1994 05004010 		beq	$2,$0,.L128
 2537 1998 00000000 		nop
 2538              	
 2539              	.L127:
 2540 199c 28008427 		addiu	$4,$28,%gp_rel(Unity+40)
 2541 19a0 01000524 		li	$5,1			# 0x1
 2542 19a4 0000000C 		jal	longjmp
 2543 19a8 00000000 		nop
 2544              	
 2545              	.L128:
 2546 19ac 2000C38F 		lw	$3,32($fp)
 2547 19b0 2400C28F 		lw	$2,36($fp)
 2548 19b4 07006214 		bne	$3,$2,.L129
 2549 19b8 00000000 		nop
 2550              	
 2551 19bc 2800C28F 		lw	$2,40($fp)
 2552 19c0 01004230 		andi	$2,$2,0x1
 2553 19c4 03004010 		beq	$2,$0,.L129
 2554 19c8 00000000 		nop
 2555              	
 2556 19cc E7060008 		j	.L126
 2557 19d0 00000000 		nop
 2558              	
 2559              	.L129:
 2560 19d4 2000C38F 		lw	$3,32($fp)
 2561 19d8 2400C28F 		lw	$2,36($fp)
 2562 19dc 03006214 		bne	$3,$2,.L131
 2563 19e0 00000000 		nop
 2564              	
 2565 19e4 01000224 		li	$2,1			# 0x1
 2566 19e8 1000C2AF 		sw	$2,16($fp)
 2567              	.L131:
 2568 19ec 3400C28F 		lw	$2,52($fp)
 2569 19f0 10004230 		andi	$2,$2,0x10
 2570 19f4 19004010 		beq	$2,$0,.L132
 2571 19f8 00000000 		nop
 2572              	
 2573 19fc 2400C38F 		lw	$3,36($fp)
 2574 1a00 2000C28F 		lw	$2,32($fp)
 2575 1a04 2A104300 		slt	$2,$2,$3
 2576 1a08 07004010 		beq	$2,$0,.L133
 2577 1a0c 00000000 		nop
 2578              	
 2579 1a10 2800C28F 		lw	$2,40($fp)
 2580 1a14 04004230 		andi	$2,$2,0x4
 2581 1a18 03004010 		beq	$2,$0,.L133
 2582 1a1c 00000000 		nop
 2583              	
 2584 1a20 01000224 		li	$2,1			# 0x1
 2585 1a24 1000C2AF 		sw	$2,16($fp)
 2586              	.L133:
 2587 1a28 2400C38F 		lw	$3,36($fp)
 2588 1a2c 2000C28F 		lw	$2,32($fp)
 2589 1a30 2A106200 		slt	$2,$3,$2
 2590 1a34 1F004010 		beq	$2,$0,.L135
 2591 1a38 00000000 		nop
 2592              	
GAS LISTING C:\Users\Piotrek\AppData\Local\Temp\cc9LOeNg.s 			page 48


 2593 1a3c 2800C28F 		lw	$2,40($fp)
 2594 1a40 02004230 		andi	$2,$2,0x2
 2595 1a44 1B004010 		beq	$2,$0,.L135
 2596 1a48 00000000 		nop
 2597              	
 2598 1a4c 01000224 		li	$2,1			# 0x1
 2599 1a50 1000C2AF 		sw	$2,16($fp)
 2600 1a54 AD060008 		j	.L135
 2601 1a58 00000000 		nop
 2602              	
 2603              	.L132:
 2604 1a5c 2400C38F 		lw	$3,36($fp)
 2605 1a60 2000C28F 		lw	$2,32($fp)
 2606 1a64 2B104300 		sltu	$2,$2,$3
 2607 1a68 07004010 		beq	$2,$0,.L136
 2608 1a6c 00000000 		nop
 2609              	
 2610 1a70 2800C28F 		lw	$2,40($fp)
 2611 1a74 04004230 		andi	$2,$2,0x4
 2612 1a78 03004010 		beq	$2,$0,.L136
 2613 1a7c 00000000 		nop
 2614              	
 2615 1a80 01000224 		li	$2,1			# 0x1
 2616 1a84 1000C2AF 		sw	$2,16($fp)
 2617              	.L136:
 2618 1a88 2400C38F 		lw	$3,36($fp)
 2619 1a8c 2000C28F 		lw	$2,32($fp)
 2620 1a90 2B106200 		sltu	$2,$3,$2
 2621 1a94 07004010 		beq	$2,$0,.L135
 2622 1a98 00000000 		nop
 2623              	
 2624 1a9c 2800C28F 		lw	$2,40($fp)
 2625 1aa0 02004230 		andi	$2,$2,0x2
 2626 1aa4 03004010 		beq	$2,$0,.L135
 2627 1aa8 00000000 		nop
 2628              	
 2629 1aac 01000224 		li	$2,1			# 0x1
 2630 1ab0 1000C2AF 		sw	$2,16($fp)
 2631              	.L135:
 2632 1ab4 1000C28F 		lw	$2,16($fp)
 2633 1ab8 38004010 		beq	$2,$0,.L126
 2634 1abc 00000000 		nop
 2635              	
 2636 1ac0 3000C48F 		lw	$4,48($fp)
 2637 1ac4 AB04000C 		jal	UnityTestResultsFailBegin
 2638 1ac8 00000000 		nop
 2639              	
 2640 1acc 0000023C 		lui	$2,%hi(UnityStrExpected)
 2641 1ad0 28004424 		addiu	$4,$2,%lo(UnityStrExpected)
 2642 1ad4 0000000C 		jal	UnityPrint
 2643 1ad8 00000000 		nop
 2644              	
 2645 1adc 2400C48F 		lw	$4,36($fp)
 2646 1ae0 3400C58F 		lw	$5,52($fp)
 2647 1ae4 0000000C 		jal	UnityPrintNumberByStyle
 2648 1ae8 00000000 		nop
 2649              	
GAS LISTING C:\Users\Piotrek\AppData\Local\Temp\cc9LOeNg.s 			page 49


 2650 1aec 2800C28F 		lw	$2,40($fp)
 2651 1af0 02004230 		andi	$2,$2,0x2
 2652 1af4 05004010 		beq	$2,$0,.L137
 2653 1af8 00000000 		nop
 2654              	
 2655 1afc 0000023C 		lui	$2,%hi(UnityStrGt)
 2656 1b00 3C004424 		addiu	$4,$2,%lo(UnityStrGt)
 2657 1b04 0000000C 		jal	UnityPrint
 2658 1b08 00000000 		nop
 2659              	
 2660              	.L137:
 2661 1b0c 2800C28F 		lw	$2,40($fp)
 2662 1b10 04004230 		andi	$2,$2,0x4
 2663 1b14 05004010 		beq	$2,$0,.L138
 2664 1b18 00000000 		nop
 2665              	
 2666 1b1c 0000023C 		lui	$2,%hi(UnityStrLt)
 2667 1b20 54004424 		addiu	$4,$2,%lo(UnityStrLt)
 2668 1b24 0000000C 		jal	UnityPrint
 2669 1b28 00000000 		nop
 2670              	
 2671              	.L138:
 2672 1b2c 2800C28F 		lw	$2,40($fp)
 2673 1b30 01004230 		andi	$2,$2,0x1
 2674 1b34 05004010 		beq	$2,$0,.L139
 2675 1b38 00000000 		nop
 2676              	
 2677 1b3c 0000023C 		lui	$2,%hi(UnityStrOrEqual)
 2678 1b40 68004424 		addiu	$4,$2,%lo(UnityStrOrEqual)
 2679 1b44 0000000C 		jal	UnityPrint
 2680 1b48 00000000 		nop
 2681              	
 2682              	.L139:
 2683 1b4c 2800C28F 		lw	$2,40($fp)
 2684 1b50 05004014 		bne	$2,$0,.L140
 2685 1b54 00000000 		nop
 2686              	
 2687 1b58 0000023C 		lui	$2,%hi(UnityStrNotEqual)
 2688 1b5c 78004424 		addiu	$4,$2,%lo(UnityStrNotEqual)
 2689 1b60 0000000C 		jal	UnityPrint
 2690 1b64 00000000 		nop
 2691              	
 2692              	.L140:
 2693 1b68 2000C48F 		lw	$4,32($fp)
 2694 1b6c 3400C58F 		lw	$5,52($fp)
 2695 1b70 0000000C 		jal	UnityPrintNumberByStyle
 2696 1b74 00000000 		nop
 2697              	
 2698 1b78 2C00C48F 		lw	$4,44($fp)
 2699 1b7c F104000C 		jal	UnityAddMsgIfSpecified
 2700 1b80 00000000 		nop
 2701              	
 2702 1b84 01000224 		li	$2,1			# 0x1
 2703 1b88 200082AF 		sw	$2,%gp_rel(Unity+32)($28)
 2704 1b8c 28008427 		addiu	$4,$28,%gp_rel(Unity+40)
 2705 1b90 01000524 		li	$5,1			# 0x1
 2706 1b94 0000000C 		jal	longjmp
GAS LISTING C:\Users\Piotrek\AppData\Local\Temp\cc9LOeNg.s 			page 50


 2707 1b98 00000000 		nop
 2708              	
 2709              	.L126:
 2710 1b9c 21E8C003 		move	$sp,$fp
 2711 1ba0 1C00BF8F 		lw	$31,28($sp)
 2712 1ba4 1800BE8F 		lw	$fp,24($sp)
 2713 1ba8 2000BD27 		addiu	$sp,$sp,32
 2714 1bac 0800E003 		j	$31
 2715 1bb0 00000000 		nop
 2716              	
 2717              		.set	macro
 2718              		.set	reorder
 2719              	# Begin mchp_output_function_epilogue
 2720              	# End mchp_output_function_epilogue
 2721              		.end	UnityAssertGreaterOrLessOrEqualNumber
 2722              		.size	UnityAssertGreaterOrLessOrEqualNumber, .-UnityAssertGreaterOrLessOrEqualNumber
 2723              		.align	2
 2724              		.globl	UnityAssertEqualIntArray
 2725              		.set	nomips16
 2726              		.set	nomicromips
 2727              		.ent	UnityAssertEqualIntArray
 2728              		.type	UnityAssertEqualIntArray, @function
 2729              	UnityAssertEqualIntArray:
 2730              		.frame	$fp,48,$31		# vars= 24, regs= 2/0, args= 16, gp= 0
 2731              		.mask	0xc0000000,-4
 2732              		.fmask	0x00000000,0
 2733              		.set	noreorder
 2734              		.set	nomacro
 2735              	# End mchp_output_function_prologue
 2736 1bb4 D0FFBD27 		addiu	$sp,$sp,-48
 2737 1bb8 2C00BFAF 		sw	$31,44($sp)
 2738 1bbc 2800BEAF 		sw	$fp,40($sp)
 2739 1bc0 21F0A003 		move	$fp,$sp
 2740 1bc4 3000C4AF 		sw	$4,48($fp)
 2741 1bc8 3400C5AF 		sw	$5,52($fp)
 2742 1bcc 3800C6AF 		sw	$6,56($fp)
 2743 1bd0 3C00C7AF 		sw	$7,60($fp)
 2744 1bd4 3800C28F 		lw	$2,56($fp)
 2745 1bd8 1000C2AF 		sw	$2,16($fp)
 2746 1bdc 4400C28F 		lw	$2,68($fp)
 2747 1be0 0F004230 		andi	$2,$2,0xf
 2748 1be4 1400C2AF 		sw	$2,20($fp)
 2749 1be8 1800C0AF 		sw	$0,24($fp)
 2750 1bec 2000828F 		lw	$2,%gp_rel(Unity+32)($28)
 2751 1bf0 04004014 		bne	$2,$0,.L142
 2752 1bf4 00000000 		nop
 2753              	
 2754 1bf8 2400828F 		lw	$2,%gp_rel(Unity+36)($28)
 2755 1bfc 05004010 		beq	$2,$0,.L143
 2756 1c00 00000000 		nop
 2757              	
 2758              	.L142:
 2759 1c04 28008427 		addiu	$4,$28,%gp_rel(Unity+40)
 2760 1c08 01000524 		li	$5,1			# 0x1
 2761 1c0c 0000000C 		jal	longjmp
 2762 1c10 00000000 		nop
 2763              	
GAS LISTING C:\Users\Piotrek\AppData\Local\Temp\cc9LOeNg.s 			page 51


 2764              	.L143:
 2765 1c14 3800C28F 		lw	$2,56($fp)
 2766 1c18 11004014 		bne	$2,$0,.L144
 2767 1c1c 00000000 		nop
 2768              	
 2769 1c20 4000C48F 		lw	$4,64($fp)
 2770 1c24 AB04000C 		jal	UnityTestResultsFailBegin
 2771 1c28 00000000 		nop
 2772              	
 2773 1c2c 0000023C 		lui	$2,%hi(UnityStrPointless)
 2774 1c30 D4004424 		addiu	$4,$2,%lo(UnityStrPointless)
 2775 1c34 0000000C 		jal	UnityPrint
 2776 1c38 00000000 		nop
 2777              	
 2778 1c3c 3C00C48F 		lw	$4,60($fp)
 2779 1c40 F104000C 		jal	UnityAddMsgIfSpecified
 2780 1c44 00000000 		nop
 2781              	
 2782 1c48 01000224 		li	$2,1			# 0x1
 2783 1c4c 200082AF 		sw	$2,%gp_rel(Unity+32)($28)
 2784 1c50 28008427 		addiu	$4,$28,%gp_rel(Unity+40)
 2785 1c54 01000524 		li	$5,1			# 0x1
 2786 1c58 0000000C 		jal	longjmp
 2787 1c5c 00000000 		nop
 2788              	
 2789              	.L144:
 2790 1c60 3000C38F 		lw	$3,48($fp)
 2791 1c64 3400C28F 		lw	$2,52($fp)
 2792 1c68 03006214 		bne	$3,$2,.L145
 2793 1c6c 00000000 		nop
 2794              	
 2795 1c70 AD070008 		j	.L141
 2796 1c74 00000000 		nop
 2797              	
 2798              	.L145:
 2799 1c78 3000C48F 		lw	$4,48($fp)
 2800 1c7c 3400C58F 		lw	$5,52($fp)
 2801 1c80 4000C68F 		lw	$6,64($fp)
 2802 1c84 3C00C78F 		lw	$7,60($fp)
 2803 1c88 AB05000C 		jal	UnityIsOneArrayNull
 2804 1c8c 00000000 		nop
 2805              	
 2806 1c90 07004010 		beq	$2,$0,.L147
 2807 1c94 00000000 		nop
 2808              	
 2809 1c98 01000224 		li	$2,1			# 0x1
 2810 1c9c 200082AF 		sw	$2,%gp_rel(Unity+32)($28)
 2811 1ca0 28008427 		addiu	$4,$28,%gp_rel(Unity+40)
 2812 1ca4 01000524 		li	$5,1			# 0x1
 2813 1ca8 0000000C 		jal	longjmp
 2814 1cac 00000000 		nop
 2815              	
 2816              	.L147:
 2817 1cb0 A5070008 		j	.L148
 2818 1cb4 00000000 		nop
 2819              	
 2820              	.L156:
GAS LISTING C:\Users\Piotrek\AppData\Local\Temp\cc9LOeNg.s 			page 52


 2821 1cb8 1400C28F 		lw	$2,20($fp)
 2822 1cbc 01000324 		li	$3,1			# 0x1
 2823 1cc0 06004310 		beq	$2,$3,.L150
 2824 1cc4 00000000 		nop
 2825              	
 2826 1cc8 02000324 		li	$3,2			# 0x2
 2827 1ccc 0D004310 		beq	$2,$3,.L151
 2828 1cd0 00000000 		nop
 2829              	
 2830 1cd4 4B070008 		j	.L157
 2831 1cd8 00000000 		nop
 2832              	
 2833              	.L150:
 2834 1cdc 3000C28F 		lw	$2,48($fp)
 2835 1ce0 00004280 		lb	$2,0($2)
 2836 1ce4 1C00C2AF 		sw	$2,28($fp)
 2837 1ce8 3400C28F 		lw	$2,52($fp)
 2838 1cec 00004280 		lb	$2,0($2)
 2839 1cf0 2000C2AF 		sw	$2,32($fp)
 2840 1cf4 01000224 		li	$2,1			# 0x1
 2841 1cf8 1800C2AF 		sw	$2,24($fp)
 2842 1cfc 56070008 		j	.L152
 2843 1d00 00000000 		nop
 2844              	
 2845              	.L151:
 2846 1d04 3000C28F 		lw	$2,48($fp)
 2847 1d08 00004284 		lh	$2,0($2)
 2848 1d0c 1C00C2AF 		sw	$2,28($fp)
 2849 1d10 3400C28F 		lw	$2,52($fp)
 2850 1d14 00004284 		lh	$2,0($2)
 2851 1d18 2000C2AF 		sw	$2,32($fp)
 2852 1d1c 02000224 		li	$2,2			# 0x2
 2853 1d20 1800C2AF 		sw	$2,24($fp)
 2854 1d24 56070008 		j	.L152
 2855 1d28 00000000 		nop
 2856              	
 2857              	.L157:
 2858 1d2c 3000C28F 		lw	$2,48($fp)
 2859 1d30 0000428C 		lw	$2,0($2)
 2860 1d34 1C00C2AF 		sw	$2,28($fp)
 2861 1d38 3400C28F 		lw	$2,52($fp)
 2862 1d3c 0000428C 		lw	$2,0($2)
 2863 1d40 2000C2AF 		sw	$2,32($fp)
 2864 1d44 04000224 		li	$2,4			# 0x4
 2865 1d48 1800C2AF 		sw	$2,24($fp)
 2866 1d4c 04000224 		li	$2,4			# 0x4
 2867 1d50 1400C2AF 		sw	$2,20($fp)
 2868 1d54 00000000 		nop
 2869              	.L152:
 2870 1d58 1C00C38F 		lw	$3,28($fp)
 2871 1d5c 2000C28F 		lw	$2,32($fp)
 2872 1d60 40006210 		beq	$3,$2,.L153
 2873 1d64 00000000 		nop
 2874              	
 2875 1d68 4400C28F 		lw	$2,68($fp)
 2876 1d6c 20004230 		andi	$2,$2,0x20
 2877 1d70 15004010 		beq	$2,$0,.L154
GAS LISTING C:\Users\Piotrek\AppData\Local\Temp\cc9LOeNg.s 			page 53


 2878 1d74 00000000 		nop
 2879              	
 2880 1d78 1400C28F 		lw	$2,20($fp)
 2881 1d7c 0400422C 		sltu	$2,$2,4
 2882 1d80 11004010 		beq	$2,$0,.L154
 2883 1d84 00000000 		nop
 2884              	
 2885 1d88 01000224 		li	$2,1			# 0x1
 2886 1d8c 2400C2AF 		sw	$2,36($fp)
 2887 1d90 1400C28F 		lw	$2,20($fp)
 2888 1d94 C0100200 		sll	$2,$2,3
 2889 1d98 2400C38F 		lw	$3,36($fp)
 2890 1d9c 04104300 		sll	$2,$3,$2
 2891 1da0 FFFF4224 		addiu	$2,$2,-1
 2892 1da4 2400C2AF 		sw	$2,36($fp)
 2893 1da8 1C00C38F 		lw	$3,28($fp)
 2894 1dac 2400C28F 		lw	$2,36($fp)
 2895 1db0 24106200 		and	$2,$3,$2
 2896 1db4 1C00C2AF 		sw	$2,28($fp)
 2897 1db8 2000C38F 		lw	$3,32($fp)
 2898 1dbc 2400C28F 		lw	$2,36($fp)
 2899 1dc0 24106200 		and	$2,$3,$2
 2900 1dc4 2000C2AF 		sw	$2,32($fp)
 2901              	.L154:
 2902 1dc8 4000C48F 		lw	$4,64($fp)
 2903 1dcc AB04000C 		jal	UnityTestResultsFailBegin
 2904 1dd0 00000000 		nop
 2905              	
 2906 1dd4 0000023C 		lui	$2,%hi(UnityStrElement)
 2907 1dd8 90004424 		addiu	$4,$2,%lo(UnityStrElement)
 2908 1ddc 0000000C 		jal	UnityPrint
 2909 1de0 00000000 		nop
 2910              	
 2911 1de4 3800C38F 		lw	$3,56($fp)
 2912 1de8 1000C28F 		lw	$2,16($fp)
 2913 1dec 23106200 		subu	$2,$3,$2
 2914 1df0 FFFF4224 		addiu	$2,$2,-1
 2915 1df4 21204000 		move	$4,$2
 2916 1df8 0000000C 		jal	UnityPrintNumberUnsigned
 2917 1dfc 00000000 		nop
 2918              	
 2919 1e00 0000023C 		lui	$2,%hi(UnityStrExpected)
 2920 1e04 28004424 		addiu	$4,$2,%lo(UnityStrExpected)
 2921 1e08 0000000C 		jal	UnityPrint
 2922 1e0c 00000000 		nop
 2923              	
 2924 1e10 1C00C48F 		lw	$4,28($fp)
 2925 1e14 4400C58F 		lw	$5,68($fp)
 2926 1e18 0000000C 		jal	UnityPrintNumberByStyle
 2927 1e1c 00000000 		nop
 2928              	
 2929 1e20 0000023C 		lui	$2,%hi(UnityStrWas)
 2930 1e24 34004424 		addiu	$4,$2,%lo(UnityStrWas)
 2931 1e28 0000000C 		jal	UnityPrint
 2932 1e2c 00000000 		nop
 2933              	
 2934 1e30 2000C48F 		lw	$4,32($fp)
GAS LISTING C:\Users\Piotrek\AppData\Local\Temp\cc9LOeNg.s 			page 54


 2935 1e34 4400C58F 		lw	$5,68($fp)
 2936 1e38 0000000C 		jal	UnityPrintNumberByStyle
 2937 1e3c 00000000 		nop
 2938              	
 2939 1e40 3C00C48F 		lw	$4,60($fp)
 2940 1e44 F104000C 		jal	UnityAddMsgIfSpecified
 2941 1e48 00000000 		nop
 2942              	
 2943 1e4c 01000224 		li	$2,1			# 0x1
 2944 1e50 200082AF 		sw	$2,%gp_rel(Unity+32)($28)
 2945 1e54 28008427 		addiu	$4,$28,%gp_rel(Unity+40)
 2946 1e58 01000524 		li	$5,1			# 0x1
 2947 1e5c 0000000C 		jal	longjmp
 2948 1e60 00000000 		nop
 2949              	
 2950              	.L153:
 2951 1e64 4800C38F 		lw	$3,72($fp)
 2952 1e68 01000224 		li	$2,1			# 0x1
 2953 1e6c 05006214 		bne	$3,$2,.L155
 2954 1e70 00000000 		nop
 2955              	
 2956 1e74 3000C38F 		lw	$3,48($fp)
 2957 1e78 1800C28F 		lw	$2,24($fp)
 2958 1e7c 21106200 		addu	$2,$3,$2
 2959 1e80 3000C2AF 		sw	$2,48($fp)
 2960              	.L155:
 2961 1e84 3400C38F 		lw	$3,52($fp)
 2962 1e88 1800C28F 		lw	$2,24($fp)
 2963 1e8c 21106200 		addu	$2,$3,$2
 2964 1e90 3400C2AF 		sw	$2,52($fp)
 2965              	.L148:
 2966 1e94 1000C28F 		lw	$2,16($fp)
 2967 1e98 06004010 		beq	$2,$0,.L141
 2968 1e9c 00000000 		nop
 2969              	
 2970 1ea0 1000C28F 		lw	$2,16($fp)
 2971 1ea4 FFFF4324 		addiu	$3,$2,-1
 2972 1ea8 1000C3AF 		sw	$3,16($fp)
 2973 1eac 82FF4014 		bne	$2,$0,.L156
 2974 1eb0 00000000 		nop
 2975              	
 2976              	.L141:
 2977 1eb4 21E8C003 		move	$sp,$fp
 2978 1eb8 2C00BF8F 		lw	$31,44($sp)
 2979 1ebc 2800BE8F 		lw	$fp,40($sp)
 2980 1ec0 3000BD27 		addiu	$sp,$sp,48
 2981 1ec4 0800E003 		j	$31
 2982 1ec8 00000000 		nop
 2983              	
 2984              		.set	macro
 2985              		.set	reorder
 2986              	# Begin mchp_output_function_epilogue
 2987              	# End mchp_output_function_epilogue
 2988              		.end	UnityAssertEqualIntArray
 2989              		.size	UnityAssertEqualIntArray, .-UnityAssertEqualIntArray
 2990              		.align	2
 2991              		.set	nomips16
GAS LISTING C:\Users\Piotrek\AppData\Local\Temp\cc9LOeNg.s 			page 55


 2992              		.set	nomicromips
 2993              		.ent	UnityFloatsWithin
 2994              		.type	UnityFloatsWithin, @function
 2995              	UnityFloatsWithin:
 2996              		.frame	$fp,16,$31		# vars= 8, regs= 1/0, args= 0, gp= 0
 2997              		.mask	0x40000000,-4
 2998              		.fmask	0x00000000,0
 2999              		.set	noreorder
 3000              		.set	nomacro
 3001              	# End mchp_output_function_prologue
 3002 1ecc F0FFBD27 		addiu	$sp,$sp,-16
 3003 1ed0 0C00BEAF 		sw	$fp,12($sp)
 3004 1ed4 21F0A003 		move	$fp,$sp
 3005 1ed8 1000CCE7 		swc1	$f12,16($fp)
 3006 1edc 1400CEE7 		swc1	$f14,20($fp)
 3007 1ee0 1800C6AF 		sw	$6,24($fp)
 3008 1ee4 1400C28F 		lw	$2,20($fp)
 3009 1ee8 00F0427C 		ext	$2,$2,0,31
 3010 1eec 00008244 		mtc1	$2,$f0
 3011 1ef0 21000046 		cvt.d.s	$f0,$f0
 3012 1ef4 00000444 		mfc1	$4,$f0
 3013 1ef8 00006544 		mfhc1	$5,$f0
 3014 1efc 01000624 		li	$6,1			# 0x1
 3015 1f00 0000023C 		lui	$2,%hi(.LC2)
 3016 1f04 8C02438C 		lw	$3,%lo(.LC2+4)($2)
 3017 1f08 8802428C 		lw	$2,%lo(.LC2)($2)
 3018 1f0c 00088444 		mtc1	$4,$f1
 3019 1f10 0008E544 		mthc1	$5,$f1
 3020 1f14 00008244 		mtc1	$2,$f0
 3021 1f18 0000E344 		mthc1	$3,$f0
 3022 1f1c 37082046 		c.ule.d	$fcc0,$f1,$f0
 3023 1f20 02000145 		bc1t	$fcc0,.L159
 3024 1f24 00000000 		nop
 3025              	
 3026 1f28 21300000 		move	$6,$0
 3027              	.L159:
 3028 1f2c FF00C230 		andi	$2,$6,0x00ff
 3029 1f30 01004238 		xori	$2,$2,0x1
 3030 1f34 FF004230 		andi	$2,$2,0x00ff
 3031 1f38 35004010 		beq	$2,$0,.L160
 3032 1f3c 00000000 		nop
 3033              	
 3034 1f40 1800C28F 		lw	$2,24($fp)
 3035 1f44 00F0427C 		ext	$2,$2,0,31
 3036 1f48 00088244 		mtc1	$2,$f1
 3037 1f4c 61080046 		cvt.d.s	$f1,$f1
 3038 1f50 00080444 		mfc1	$4,$f1
 3039 1f54 00086544 		mfhc1	$5,$f1
 3040 1f58 01000624 		li	$6,1			# 0x1
 3041 1f5c 0000023C 		lui	$2,%hi(.LC2)
 3042 1f60 8C02438C 		lw	$3,%lo(.LC2+4)($2)
 3043 1f64 8802428C 		lw	$2,%lo(.LC2)($2)
 3044 1f68 00008444 		mtc1	$4,$f0
 3045 1f6c 0000E544 		mthc1	$5,$f0
 3046 1f70 00088244 		mtc1	$2,$f1
 3047 1f74 0008E344 		mthc1	$3,$f1
 3048 1f78 37012146 		c.ule.d	$fcc1,$f0,$f1
GAS LISTING C:\Users\Piotrek\AppData\Local\Temp\cc9LOeNg.s 			page 56


 3049 1f7c 02000545 		bc1t	$fcc1,.L161
 3050 1f80 00000000 		nop
 3051              	
 3052 1f84 21300000 		move	$6,$0
 3053              	.L161:
 3054 1f88 FF00C230 		andi	$2,$6,0x00ff
 3055 1f8c 01004238 		xori	$2,$2,0x1
 3056 1f90 FF004230 		andi	$2,$2,0x00ff
 3057 1f94 1E004010 		beq	$2,$0,.L160
 3058 1f98 00000000 		nop
 3059              	
 3060 1f9c 01000224 		li	$2,1			# 0x1
 3061 1fa0 1400C48F 		lw	$4,20($fp)
 3062 1fa4 21180000 		move	$3,$0
 3063 1fa8 00008444 		mtc1	$4,$f0
 3064 1fac 00088344 		mtc1	$3,$f1
 3065 1fb0 3C020146 		c.lt.s	$fcc2,$f0,$f1
 3066 1fb4 02000945 		bc1t	$fcc2,.L162
 3067 1fb8 00000000 		nop
 3068              	
 3069 1fbc 21100000 		move	$2,$0
 3070              	.L162:
 3071 1fc0 FF004230 		andi	$2,$2,0x00ff
 3072 1fc4 01004238 		xori	$2,$2,0x1
 3073 1fc8 FF004330 		andi	$3,$2,0x00ff
 3074 1fcc 01000224 		li	$2,1			# 0x1
 3075 1fd0 1800C58F 		lw	$5,24($fp)
 3076 1fd4 21200000 		move	$4,$0
 3077 1fd8 00008544 		mtc1	$5,$f0
 3078 1fdc 00088444 		mtc1	$4,$f1
 3079 1fe0 3C030146 		c.lt.s	$fcc3,$f0,$f1
 3080 1fe4 02000D45 		bc1t	$fcc3,.L163
 3081 1fe8 00000000 		nop
 3082              	
 3083 1fec 21100000 		move	$2,$0
 3084              	.L163:
 3085 1ff0 FF004230 		andi	$2,$2,0x00ff
 3086 1ff4 26106200 		xor	$2,$3,$2
 3087 1ff8 FF004230 		andi	$2,$2,0x00ff
 3088 1ffc 04004010 		beq	$2,$0,.L160
 3089 2000 00000000 		nop
 3090              	
 3091 2004 01000224 		li	$2,1			# 0x1
 3092 2008 62080008 		j	.L164
 3093 200c 00000000 		nop
 3094              	
 3095              	.L160:
 3096 2010 1400C38F 		lw	$3,20($fp)
 3097 2014 1400C28F 		lw	$2,20($fp)
 3098 2018 00008344 		mtc1	$3,$f0
 3099 201c 00088244 		mtc1	$2,$f1
 3100 2020 32040146 		c.eq.s	$fcc4,$f0,$f1
 3101 2024 0B001145 		bc1t	$fcc4,.L165
 3102 2028 00000000 		nop
 3103              	
 3104 202c 1800C38F 		lw	$3,24($fp)
 3105 2030 1800C28F 		lw	$2,24($fp)
GAS LISTING C:\Users\Piotrek\AppData\Local\Temp\cc9LOeNg.s 			page 57


 3106 2034 00008344 		mtc1	$3,$f0
 3107 2038 00088244 		mtc1	$2,$f1
 3108 203c 32050146 		c.eq.s	$fcc5,$f0,$f1
 3109 2040 04001545 		bc1t	$fcc5,.L165
 3110 2044 00000000 		nop
 3111              	
 3112 2048 01000224 		li	$2,1			# 0x1
 3113 204c 62080008 		j	.L164
 3114 2050 00000000 		nop
 3115              	
 3116              	.L165:
 3117 2054 1800C38F 		lw	$3,24($fp)
 3118 2058 1400C28F 		lw	$2,20($fp)
 3119 205c 00008344 		mtc1	$3,$f0
 3120 2060 00088244 		mtc1	$2,$f1
 3121 2064 01000146 		sub.s	$f0,$f0,$f1
 3122 2068 00000244 		mfc1	$2,$f0
 3123 206c 0000C2AF 		sw	$2,0($fp)
 3124 2070 0000C38F 		lw	$3,0($fp)
 3125 2074 21100000 		move	$2,$0
 3126 2078 00008344 		mtc1	$3,$f0
 3127 207c 00088244 		mtc1	$2,$f1
 3128 2080 3C060146 		c.lt.s	$fcc6,$f0,$f1
 3129 2084 05001845 		bc1f	$fcc6,.L166
 3130 2088 00000000 		nop
 3131              	
 3132 208c 0000C38F 		lw	$3,0($fp)
 3133 2090 0080023C 		li	$2,-2147483648			# 0xffffffff80000000
 3134 2094 26106200 		xor	$2,$3,$2
 3135 2098 0000C2AF 		sw	$2,0($fp)
 3136              	.L166:
 3137 209c 1000C38F 		lw	$3,16($fp)
 3138 20a0 21100000 		move	$2,$0
 3139 20a4 00008344 		mtc1	$3,$f0
 3140 20a8 00088244 		mtc1	$2,$f1
 3141 20ac 3C070146 		c.lt.s	$fcc7,$f0,$f1
 3142 20b0 05001C45 		bc1f	$fcc7,.L168
 3143 20b4 00000000 		nop
 3144              	
 3145 20b8 1000C38F 		lw	$3,16($fp)
 3146 20bc 0080023C 		li	$2,-2147483648			# 0xffffffff80000000
 3147 20c0 26106200 		xor	$2,$3,$2
 3148 20c4 1000C2AF 		sw	$2,16($fp)
 3149              	.L168:
 3150 20c8 0000C38F 		lw	$3,0($fp)
 3151 20cc 0000C28F 		lw	$2,0($fp)
 3152 20d0 00008344 		mtc1	$3,$f0
 3153 20d4 00088244 		mtc1	$2,$f1
 3154 20d8 32000146 		c.eq.s	$fcc0,$f0,$f1
 3155 20dc 29000045 		bc1f	$fcc0,.L170
 3156 20e0 00000000 		nop
 3157              	
 3158 20e4 0000C28F 		lw	$2,0($fp)
 3159 20e8 00F0427C 		ext	$2,$2,0,31
 3160 20ec 00008244 		mtc1	$2,$f0
 3161 20f0 21000046 		cvt.d.s	$f0,$f0
 3162 20f4 00000444 		mfc1	$4,$f0
GAS LISTING C:\Users\Piotrek\AppData\Local\Temp\cc9LOeNg.s 			page 58


 3163 20f8 00006544 		mfhc1	$5,$f0
 3164 20fc 01000624 		li	$6,1			# 0x1
 3165 2100 0000023C 		lui	$2,%hi(.LC2)
 3166 2104 8C02438C 		lw	$3,%lo(.LC2+4)($2)
 3167 2108 8802428C 		lw	$2,%lo(.LC2)($2)
 3168 210c 00088444 		mtc1	$4,$f1
 3169 2110 0008E544 		mthc1	$5,$f1
 3170 2114 00008244 		mtc1	$2,$f0
 3171 2118 0000E344 		mthc1	$3,$f0
 3172 211c 37092046 		c.ule.d	$fcc1,$f1,$f0
 3173 2120 02000545 		bc1t	$fcc1,.L171
 3174 2124 00000000 		nop
 3175              	
 3176 2128 21300000 		move	$6,$0
 3177              	.L171:
 3178 212c FF00C230 		andi	$2,$6,0x00ff
 3179 2130 01004238 		xori	$2,$2,0x1
 3180 2134 FF004230 		andi	$2,$2,0x00ff
 3181 2138 12004014 		bne	$2,$0,.L170
 3182 213c 00000000 		nop
 3183              	
 3184 2140 01000224 		li	$2,1			# 0x1
 3185 2144 0000C48F 		lw	$4,0($fp)
 3186 2148 1000C38F 		lw	$3,16($fp)
 3187 214c 00088444 		mtc1	$4,$f1
 3188 2150 00008344 		mtc1	$3,$f0
 3189 2154 3C020146 		c.lt.s	$fcc2,$f0,$f1
 3190 2158 02000945 		bc1t	$fcc2,.L172
 3191 215c 00000000 		nop
 3192              	
 3193 2160 21100000 		move	$2,$0
 3194              	.L172:
 3195 2164 FF004230 		andi	$2,$2,0x00ff
 3196 2168 01004238 		xori	$2,$2,0x1
 3197 216c FF004230 		andi	$2,$2,0x00ff
 3198 2170 04004010 		beq	$2,$0,.L170
 3199 2174 00000000 		nop
 3200              	
 3201 2178 01000224 		li	$2,1			# 0x1
 3202 217c 62080008 		j	.L173
 3203 2180 00000000 		nop
 3204              	
 3205              	.L170:
 3206 2184 21100000 		move	$2,$0
 3207              	.L173:
 3208              	.L164:
 3209 2188 21E8C003 		move	$sp,$fp
 3210 218c 0C00BE8F 		lw	$fp,12($sp)
 3211 2190 1000BD27 		addiu	$sp,$sp,16
 3212 2194 0800E003 		j	$31
 3213 2198 00000000 		nop
 3214              	
 3215              		.set	macro
 3216              		.set	reorder
 3217              	# Begin mchp_output_function_epilogue
 3218              	# End mchp_output_function_epilogue
 3219              		.end	UnityFloatsWithin
GAS LISTING C:\Users\Piotrek\AppData\Local\Temp\cc9LOeNg.s 			page 59


 3220              		.size	UnityFloatsWithin, .-UnityFloatsWithin
 3221              		.align	2
 3222              		.globl	UnityAssertEqualFloatArray
 3223              		.set	nomips16
 3224              		.set	nomicromips
 3225              		.ent	UnityAssertEqualFloatArray
 3226              		.type	UnityAssertEqualFloatArray, @function
 3227              	UnityAssertEqualFloatArray:
 3228              		.frame	$fp,40,$31		# vars= 16, regs= 2/0, args= 16, gp= 0
 3229              		.mask	0xc0000000,-4
 3230              		.fmask	0x00000000,0
 3231              		.set	noreorder
 3232              		.set	nomacro
 3233              	# End mchp_output_function_prologue
 3234 219c D8FFBD27 		addiu	$sp,$sp,-40
 3235 21a0 2400BFAF 		sw	$31,36($sp)
 3236 21a4 2000BEAF 		sw	$fp,32($sp)
 3237 21a8 21F0A003 		move	$fp,$sp
 3238 21ac 2800C4AF 		sw	$4,40($fp)
 3239 21b0 2C00C5AF 		sw	$5,44($fp)
 3240 21b4 3000C6AF 		sw	$6,48($fp)
 3241 21b8 3400C7AF 		sw	$7,52($fp)
 3242 21bc 3000C28F 		lw	$2,48($fp)
 3243 21c0 1000C2AF 		sw	$2,16($fp)
 3244 21c4 2800C28F 		lw	$2,40($fp)
 3245 21c8 1400C2AF 		sw	$2,20($fp)
 3246 21cc 2C00C28F 		lw	$2,44($fp)
 3247 21d0 1800C2AF 		sw	$2,24($fp)
 3248 21d4 2000828F 		lw	$2,%gp_rel(Unity+32)($28)
 3249 21d8 04004014 		bne	$2,$0,.L177
 3250 21dc 00000000 		nop
 3251              	
 3252 21e0 2400828F 		lw	$2,%gp_rel(Unity+36)($28)
 3253 21e4 05004010 		beq	$2,$0,.L178
 3254 21e8 00000000 		nop
 3255              	
 3256              	.L177:
 3257 21ec 28008427 		addiu	$4,$28,%gp_rel(Unity+40)
 3258 21f0 01000524 		li	$5,1			# 0x1
 3259 21f4 0000000C 		jal	longjmp
 3260 21f8 00000000 		nop
 3261              	
 3262              	.L178:
 3263 21fc 1000C28F 		lw	$2,16($fp)
 3264 2200 11004014 		bne	$2,$0,.L179
 3265 2204 00000000 		nop
 3266              	
 3267 2208 3800C48F 		lw	$4,56($fp)
 3268 220c AB04000C 		jal	UnityTestResultsFailBegin
 3269 2210 00000000 		nop
 3270              	
 3271 2214 0000023C 		lui	$2,%hi(UnityStrPointless)
 3272 2218 D4004424 		addiu	$4,$2,%lo(UnityStrPointless)
 3273 221c 0000000C 		jal	UnityPrint
 3274 2220 00000000 		nop
 3275              	
 3276 2224 3400C48F 		lw	$4,52($fp)
GAS LISTING C:\Users\Piotrek\AppData\Local\Temp\cc9LOeNg.s 			page 60


 3277 2228 F104000C 		jal	UnityAddMsgIfSpecified
 3278 222c 00000000 		nop
 3279              	
 3280 2230 01000224 		li	$2,1			# 0x1
 3281 2234 200082AF 		sw	$2,%gp_rel(Unity+32)($28)
 3282 2238 28008427 		addiu	$4,$28,%gp_rel(Unity+40)
 3283 223c 01000524 		li	$5,1			# 0x1
 3284 2240 0000000C 		jal	longjmp
 3285 2244 00000000 		nop
 3286              	
 3287              	.L179:
 3288 2248 2800C38F 		lw	$3,40($fp)
 3289 224c 2C00C28F 		lw	$2,44($fp)
 3290 2250 03006214 		bne	$3,$2,.L180
 3291 2254 00000000 		nop
 3292              	
 3293 2258 F3080008 		j	.L176
 3294 225c 00000000 		nop
 3295              	
 3296              	.L180:
 3297 2260 2800C48F 		lw	$4,40($fp)
 3298 2264 2C00C58F 		lw	$5,44($fp)
 3299 2268 3800C68F 		lw	$6,56($fp)
 3300 226c 3400C78F 		lw	$7,52($fp)
 3301 2270 AB05000C 		jal	UnityIsOneArrayNull
 3302 2274 00000000 		nop
 3303              	
 3304 2278 07004010 		beq	$2,$0,.L182
 3305 227c 00000000 		nop
 3306              	
 3307 2280 01000224 		li	$2,1			# 0x1
 3308 2284 200082AF 		sw	$2,%gp_rel(Unity+32)($28)
 3309 2288 28008427 		addiu	$4,$28,%gp_rel(Unity+40)
 3310 228c 01000524 		li	$5,1			# 0x1
 3311 2290 0000000C 		jal	longjmp
 3312 2294 00000000 		nop
 3313              	
 3314              	.L182:
 3315 2298 EE080008 		j	.L183
 3316 229c 00000000 		nop
 3317              	
 3318              	.L186:
 3319 22a0 1400C28F 		lw	$2,20($fp)
 3320 22a4 0000438C 		lw	$3,0($2)
 3321 22a8 0000023C 		lui	$2,%hi(.LC8)
 3322 22ac A002428C 		lw	$2,%lo(.LC8)($2)
 3323 22b0 00008344 		mtc1	$3,$f0
 3324 22b4 00088244 		mtc1	$2,$f1
 3325 22b8 02000146 		mul.s	$f0,$f0,$f1
 3326 22bc 00000444 		mfc1	$4,$f0
 3327 22c0 1400C28F 		lw	$2,20($fp)
 3328 22c4 0000438C 		lw	$3,0($2)
 3329 22c8 1800C28F 		lw	$2,24($fp)
 3330 22cc 0000428C 		lw	$2,0($2)
 3331 22d0 00608444 		mtc1	$4,$f12
 3332 22d4 00708344 		mtc1	$3,$f14
 3333 22d8 21304000 		move	$6,$2
GAS LISTING C:\Users\Piotrek\AppData\Local\Temp\cc9LOeNg.s 			page 61


 3334 22dc B307000C 		jal	UnityFloatsWithin
 3335 22e0 00000000 		nop
 3336              	
 3337 22e4 2A004014 		bne	$2,$0,.L184
 3338 22e8 00000000 		nop
 3339              	
 3340 22ec 3800C48F 		lw	$4,56($fp)
 3341 22f0 AB04000C 		jal	UnityTestResultsFailBegin
 3342 22f4 00000000 		nop
 3343              	
 3344 22f8 0000023C 		lui	$2,%hi(UnityStrElement)
 3345 22fc 90004424 		addiu	$4,$2,%lo(UnityStrElement)
 3346 2300 0000000C 		jal	UnityPrint
 3347 2304 00000000 		nop
 3348              	
 3349 2308 3000C38F 		lw	$3,48($fp)
 3350 230c 1000C28F 		lw	$2,16($fp)
 3351 2310 23106200 		subu	$2,$3,$2
 3352 2314 FFFF4224 		addiu	$2,$2,-1
 3353 2318 21204000 		move	$4,$2
 3354 231c 0000000C 		jal	UnityPrintNumberUnsigned
 3355 2320 00000000 		nop
 3356              	
 3357 2324 0000023C 		lui	$2,%hi(UnityStrExpected)
 3358 2328 28004424 		addiu	$4,$2,%lo(UnityStrExpected)
 3359 232c 0000000C 		jal	UnityPrint
 3360 2330 00000000 		nop
 3361              	
 3362 2334 1400C28F 		lw	$2,20($fp)
 3363 2338 0000428C 		lw	$2,0($2)
 3364 233c 00608244 		mtc1	$2,$f12
 3365 2340 0000000C 		jal	UnityPrintFloat
 3366 2344 00000000 		nop
 3367              	
 3368 2348 0000023C 		lui	$2,%hi(UnityStrWas)
 3369 234c 34004424 		addiu	$4,$2,%lo(UnityStrWas)
 3370 2350 0000000C 		jal	UnityPrint
 3371 2354 00000000 		nop
 3372              	
 3373 2358 1800C28F 		lw	$2,24($fp)
 3374 235c 0000428C 		lw	$2,0($2)
 3375 2360 00608244 		mtc1	$2,$f12
 3376 2364 0000000C 		jal	UnityPrintFloat
 3377 2368 00000000 		nop
 3378              	
 3379 236c 3400C48F 		lw	$4,52($fp)
 3380 2370 F104000C 		jal	UnityAddMsgIfSpecified
 3381 2374 00000000 		nop
 3382              	
 3383 2378 01000224 		li	$2,1			# 0x1
 3384 237c 200082AF 		sw	$2,%gp_rel(Unity+32)($28)
 3385 2380 28008427 		addiu	$4,$28,%gp_rel(Unity+40)
 3386 2384 01000524 		li	$5,1			# 0x1
 3387 2388 0000000C 		jal	longjmp
 3388 238c 00000000 		nop
 3389              	
 3390              	.L184:
GAS LISTING C:\Users\Piotrek\AppData\Local\Temp\cc9LOeNg.s 			page 62


 3391 2390 3C00C38F 		lw	$3,60($fp)
 3392 2394 01000224 		li	$2,1			# 0x1
 3393 2398 04006214 		bne	$3,$2,.L185
 3394 239c 00000000 		nop
 3395              	
 3396 23a0 1400C28F 		lw	$2,20($fp)
 3397 23a4 04004224 		addiu	$2,$2,4
 3398 23a8 1400C2AF 		sw	$2,20($fp)
 3399              	.L185:
 3400 23ac 1800C28F 		lw	$2,24($fp)
 3401 23b0 04004224 		addiu	$2,$2,4
 3402 23b4 1800C2AF 		sw	$2,24($fp)
 3403              	.L183:
 3404 23b8 1000C28F 		lw	$2,16($fp)
 3405 23bc FFFF4324 		addiu	$3,$2,-1
 3406 23c0 1000C3AF 		sw	$3,16($fp)
 3407 23c4 B6FF4014 		bne	$2,$0,.L186
 3408 23c8 00000000 		nop
 3409              	
 3410              	.L176:
 3411 23cc 21E8C003 		move	$sp,$fp
 3412 23d0 2400BF8F 		lw	$31,36($sp)
 3413 23d4 2000BE8F 		lw	$fp,32($sp)
 3414 23d8 2800BD27 		addiu	$sp,$sp,40
 3415 23dc 0800E003 		j	$31
 3416 23e0 00000000 		nop
 3417              	
 3418              		.set	macro
 3419              		.set	reorder
 3420              	# Begin mchp_output_function_epilogue
 3421              	# End mchp_output_function_epilogue
 3422              		.end	UnityAssertEqualFloatArray
 3423              		.size	UnityAssertEqualFloatArray, .-UnityAssertEqualFloatArray
 3424              		.align	2
 3425              		.globl	UnityAssertFloatsWithin
 3426              		.set	nomips16
 3427              		.set	nomicromips
 3428              		.ent	UnityAssertFloatsWithin
 3429              		.type	UnityAssertFloatsWithin, @function
 3430              	UnityAssertFloatsWithin:
 3431              		.frame	$fp,24,$31		# vars= 0, regs= 2/0, args= 16, gp= 0
 3432              		.mask	0xc0000000,-4
 3433              		.fmask	0x00000000,0
 3434              		.set	noreorder
 3435              		.set	nomacro
 3436              	# End mchp_output_function_prologue
 3437 23e4 E8FFBD27 		addiu	$sp,$sp,-24
 3438 23e8 1400BFAF 		sw	$31,20($sp)
 3439 23ec 1000BEAF 		sw	$fp,16($sp)
 3440 23f0 21F0A003 		move	$fp,$sp
 3441 23f4 1800CCE7 		swc1	$f12,24($fp)
 3442 23f8 1C00CEE7 		swc1	$f14,28($fp)
 3443 23fc 2000C6AF 		sw	$6,32($fp)
 3444 2400 2400C7AF 		sw	$7,36($fp)
 3445 2404 2000828F 		lw	$2,%gp_rel(Unity+32)($28)
 3446 2408 04004014 		bne	$2,$0,.L188
 3447 240c 00000000 		nop
GAS LISTING C:\Users\Piotrek\AppData\Local\Temp\cc9LOeNg.s 			page 63


 3448              	
 3449 2410 2400828F 		lw	$2,%gp_rel(Unity+36)($28)
 3450 2414 05004010 		beq	$2,$0,.L189
 3451 2418 00000000 		nop
 3452              	
 3453              	.L188:
 3454 241c 28008427 		addiu	$4,$28,%gp_rel(Unity+40)
 3455 2420 01000524 		li	$5,1			# 0x1
 3456 2424 0000000C 		jal	longjmp
 3457 2428 00000000 		nop
 3458              	
 3459              	.L189:
 3460 242c 1800CCC7 		lwc1	$f12,24($fp)
 3461 2430 1C00CEC7 		lwc1	$f14,28($fp)
 3462 2434 2000C68F 		lw	$6,32($fp)
 3463 2438 B307000C 		jal	UnityFloatsWithin
 3464 243c 00000000 		nop
 3465              	
 3466 2440 1B004014 		bne	$2,$0,.L187
 3467 2444 00000000 		nop
 3468              	
 3469 2448 2800C48F 		lw	$4,40($fp)
 3470 244c AB04000C 		jal	UnityTestResultsFailBegin
 3471 2450 00000000 		nop
 3472              	
 3473 2454 0000023C 		lui	$2,%hi(UnityStrExpected)
 3474 2458 28004424 		addiu	$4,$2,%lo(UnityStrExpected)
 3475 245c 0000000C 		jal	UnityPrint
 3476 2460 00000000 		nop
 3477              	
 3478 2464 1C00CCC7 		lwc1	$f12,28($fp)
 3479 2468 0000000C 		jal	UnityPrintFloat
 3480 246c 00000000 		nop
 3481              	
 3482 2470 0000023C 		lui	$2,%hi(UnityStrWas)
 3483 2474 34004424 		addiu	$4,$2,%lo(UnityStrWas)
 3484 2478 0000000C 		jal	UnityPrint
 3485 247c 00000000 		nop
 3486              	
 3487 2480 2000CCC7 		lwc1	$f12,32($fp)
 3488 2484 0000000C 		jal	UnityPrintFloat
 3489 2488 00000000 		nop
 3490              	
 3491 248c 2400C48F 		lw	$4,36($fp)
 3492 2490 F104000C 		jal	UnityAddMsgIfSpecified
 3493 2494 00000000 		nop
 3494              	
 3495 2498 01000224 		li	$2,1			# 0x1
 3496 249c 200082AF 		sw	$2,%gp_rel(Unity+32)($28)
 3497 24a0 28008427 		addiu	$4,$28,%gp_rel(Unity+40)
 3498 24a4 01000524 		li	$5,1			# 0x1
 3499 24a8 0000000C 		jal	longjmp
 3500 24ac 00000000 		nop
 3501              	
 3502              	.L187:
 3503 24b0 21E8C003 		move	$sp,$fp
 3504 24b4 1400BF8F 		lw	$31,20($sp)
GAS LISTING C:\Users\Piotrek\AppData\Local\Temp\cc9LOeNg.s 			page 64


 3505 24b8 1000BE8F 		lw	$fp,16($sp)
 3506 24bc 1800BD27 		addiu	$sp,$sp,24
 3507 24c0 0800E003 		j	$31
 3508 24c4 00000000 		nop
 3509              	
 3510              		.set	macro
 3511              		.set	reorder
 3512              	# Begin mchp_output_function_epilogue
 3513              	# End mchp_output_function_epilogue
 3514              		.end	UnityAssertFloatsWithin
 3515              		.size	UnityAssertFloatsWithin, .-UnityAssertFloatsWithin
 3516              		.align	2
 3517              		.globl	UnityAssertFloatSpecial
 3518              		.set	nomips16
 3519              		.set	nomicromips
 3520              		.ent	UnityAssertFloatSpecial
 3521              		.type	UnityAssertFloatSpecial, @function
 3522              	UnityAssertFloatSpecial:
 3523              		.frame	$fp,56,$31		# vars= 32, regs= 2/0, args= 16, gp= 0
 3524              		.mask	0xc0000000,-4
 3525              		.fmask	0x00000000,0
 3526              		.set	noreorder
 3527              		.set	nomacro
 3528              	# End mchp_output_function_prologue
 3529 24c8 C8FFBD27 		addiu	$sp,$sp,-56
 3530 24cc 3400BFAF 		sw	$31,52($sp)
 3531 24d0 3000BEAF 		sw	$fp,48($sp)
 3532 24d4 21F0A003 		move	$fp,$sp
 3533 24d8 3800CCE7 		swc1	$f12,56($fp)
 3534 24dc 3C00C5AF 		sw	$5,60($fp)
 3535 24e0 4000C6AF 		sw	$6,64($fp)
 3536 24e4 4400C7AF 		sw	$7,68($fp)
 3537 24e8 0000023C 		lui	$2,%hi(UnityStrInf)
 3538 24ec 50014224 		addiu	$2,$2,%lo(UnityStrInf)
 3539 24f0 1C00C2AF 		sw	$2,28($fp)
 3540 24f4 0000023C 		lui	$2,%hi(UnityStrNegInf)
 3541 24f8 5C014224 		addiu	$2,$2,%lo(UnityStrNegInf)
 3542 24fc 2000C2AF 		sw	$2,32($fp)
 3543 2500 0000023C 		lui	$2,%hi(UnityStrNaN)
 3544 2504 70014224 		addiu	$2,$2,%lo(UnityStrNaN)
 3545 2508 2400C2AF 		sw	$2,36($fp)
 3546 250c 0000023C 		lui	$2,%hi(UnityStrDet)
 3547 2510 74014224 		addiu	$2,$2,%lo(UnityStrDet)
 3548 2514 2800C2AF 		sw	$2,40($fp)
 3549 2518 4400C28F 		lw	$2,68($fp)
 3550 251c 01004230 		andi	$2,$2,0x1
 3551 2520 1800C2AF 		sw	$2,24($fp)
 3552 2524 1800C28F 		lw	$2,24($fp)
 3553 2528 0100422C 		sltu	$2,$2,1
 3554 252c FF004230 		andi	$2,$2,0x00ff
 3555 2530 1000C2AF 		sw	$2,16($fp)
 3556 2534 4400C28F 		lw	$2,68($fp)
 3557 2538 42100200 		srl	$2,$2,1
 3558 253c 1400C2AF 		sw	$2,20($fp)
 3559 2540 2000828F 		lw	$2,%gp_rel(Unity+32)($28)
 3560 2544 04004014 		bne	$2,$0,.L192
 3561 2548 00000000 		nop
GAS LISTING C:\Users\Piotrek\AppData\Local\Temp\cc9LOeNg.s 			page 65


 3562              	
 3563 254c 2400828F 		lw	$2,%gp_rel(Unity+36)($28)
 3564 2550 05004010 		beq	$2,$0,.L193
 3565 2554 00000000 		nop
 3566              	
 3567              	.L192:
 3568 2558 28008427 		addiu	$4,$28,%gp_rel(Unity+40)
 3569 255c 01000524 		li	$5,1			# 0x1
 3570 2560 0000000C 		jal	longjmp
 3571 2564 00000000 		nop
 3572              	
 3573              	.L193:
 3574 2568 4400C28F 		lw	$2,68($fp)
 3575 256c 0800422C 		sltu	$2,$2,8
 3576 2570 8D004010 		beq	$2,$0,.L194
 3577 2574 00000000 		nop
 3578              	
 3579 2578 4400C28F 		lw	$2,68($fp)
 3580 257c 80180200 		sll	$3,$2,2
 3581 2580 0000023C 		lui	$2,%hi(.L196)
 3582 2584 98254224 		addiu	$2,$2,%lo(.L196)
 3583 2588 21106200 		addu	$2,$3,$2
 3584 258c 0000428C 		lw	$2,0($2)
 3585 2590 08004000 		j	$2
 3586 2594 00000000 		nop
 3587              	
 3588              		.align	2
 3589              		.align	2
 3590              	.L196:
 3591 2598 B8250000 		.word	.L195
 3592 259c B8250000 		.word	.L195
 3593 25a0 4C260000 		.word	.L197
 3594 25a4 4C260000 		.word	.L197
 3595 25a8 E0260000 		.word	.L198
 3596 25ac E0260000 		.word	.L198
 3597 25b0 14270000 		.word	.L199
 3598 25b4 14270000 		.word	.L199
 3599              	.L195:
 3600 25b8 3800C28F 		lw	$2,56($fp)
 3601 25bc 00F0427C 		ext	$2,$2,0,31
 3602 25c0 00008244 		mtc1	$2,$f0
 3603 25c4 21000046 		cvt.d.s	$f0,$f0
 3604 25c8 00000444 		mfc1	$4,$f0
 3605 25cc 00006544 		mfhc1	$5,$f0
 3606 25d0 01000624 		li	$6,1			# 0x1
 3607 25d4 0000023C 		lui	$2,%hi(.LC2)
 3608 25d8 8C02438C 		lw	$3,%lo(.LC2+4)($2)
 3609 25dc 8802428C 		lw	$2,%lo(.LC2)($2)
 3610 25e0 00088444 		mtc1	$4,$f1
 3611 25e4 0008E544 		mthc1	$5,$f1
 3612 25e8 00008244 		mtc1	$2,$f0
 3613 25ec 0000E344 		mthc1	$3,$f0
 3614 25f0 37082046 		c.ule.d	$fcc0,$f1,$f0
 3615 25f4 02000145 		bc1t	$fcc0,.L200
 3616 25f8 00000000 		nop
 3617              	
 3618 25fc 21300000 		move	$6,$0
GAS LISTING C:\Users\Piotrek\AppData\Local\Temp\cc9LOeNg.s 			page 66


 3619              	.L200:
 3620 2600 FF00C230 		andi	$2,$6,0x00ff
 3621 2604 01004238 		xori	$2,$2,0x1
 3622 2608 FF004230 		andi	$2,$2,0x00ff
 3623 260c 0B004010 		beq	$2,$0,.L201
 3624 2610 00000000 		nop
 3625              	
 3626 2614 3800C38F 		lw	$3,56($fp)
 3627 2618 21100000 		move	$2,$0
 3628 261c 00088344 		mtc1	$3,$f1
 3629 2620 00008244 		mtc1	$2,$f0
 3630 2624 3C010146 		c.lt.s	$fcc1,$f0,$f1
 3631 2628 04000445 		bc1f	$fcc1,.L201
 3632 262c 00000000 		nop
 3633              	
 3634 2630 01000224 		li	$2,1			# 0x1
 3635 2634 90090008 		j	.L203
 3636 2638 00000000 		nop
 3637              	
 3638              	.L201:
 3639 263c 21100000 		move	$2,$0
 3640              	.L203:
 3641 2640 1000C2AF 		sw	$2,16($fp)
 3642 2644 EF090008 		j	.L204
 3643 2648 00000000 		nop
 3644              	
 3645              	.L197:
 3646 264c 3800C28F 		lw	$2,56($fp)
 3647 2650 00F0427C 		ext	$2,$2,0,31
 3648 2654 00088244 		mtc1	$2,$f1
 3649 2658 61080046 		cvt.d.s	$f1,$f1
 3650 265c 00080444 		mfc1	$4,$f1
 3651 2660 00086544 		mfhc1	$5,$f1
 3652 2664 01000624 		li	$6,1			# 0x1
 3653 2668 0000023C 		lui	$2,%hi(.LC2)
 3654 266c 8C02438C 		lw	$3,%lo(.LC2+4)($2)
 3655 2670 8802428C 		lw	$2,%lo(.LC2)($2)
 3656 2674 00008444 		mtc1	$4,$f0
 3657 2678 0000E544 		mthc1	$5,$f0
 3658 267c 00088244 		mtc1	$2,$f1
 3659 2680 0008E344 		mthc1	$3,$f1
 3660 2684 37022146 		c.ule.d	$fcc2,$f0,$f1
 3661 2688 02000945 		bc1t	$fcc2,.L205
 3662 268c 00000000 		nop
 3663              	
 3664 2690 21300000 		move	$6,$0
 3665              	.L205:
 3666 2694 FF00C230 		andi	$2,$6,0x00ff
 3667 2698 01004238 		xori	$2,$2,0x1
 3668 269c FF004230 		andi	$2,$2,0x00ff
 3669 26a0 0B004010 		beq	$2,$0,.L206
 3670 26a4 00000000 		nop
 3671              	
 3672 26a8 3800C38F 		lw	$3,56($fp)
 3673 26ac 21100000 		move	$2,$0
 3674 26b0 00008344 		mtc1	$3,$f0
 3675 26b4 00088244 		mtc1	$2,$f1
GAS LISTING C:\Users\Piotrek\AppData\Local\Temp\cc9LOeNg.s 			page 67


 3676 26b8 3C030146 		c.lt.s	$fcc3,$f0,$f1
 3677 26bc 04000C45 		bc1f	$fcc3,.L206
 3678 26c0 00000000 		nop
 3679              	
 3680 26c4 01000224 		li	$2,1			# 0x1
 3681 26c8 B5090008 		j	.L208
 3682 26cc 00000000 		nop
 3683              	
 3684              	.L206:
 3685 26d0 21100000 		move	$2,$0
 3686              	.L208:
 3687 26d4 1000C2AF 		sw	$2,16($fp)
 3688 26d8 EF090008 		j	.L204
 3689 26dc 00000000 		nop
 3690              	
 3691              	.L198:
 3692 26e0 01000224 		li	$2,1			# 0x1
 3693 26e4 3800C48F 		lw	$4,56($fp)
 3694 26e8 3800C38F 		lw	$3,56($fp)
 3695 26ec 00008444 		mtc1	$4,$f0
 3696 26f0 00088344 		mtc1	$3,$f1
 3697 26f4 32040146 		c.eq.s	$fcc4,$f0,$f1
 3698 26f8 02001045 		bc1f	$fcc4,.L209
 3699 26fc 00000000 		nop
 3700              	
 3701 2700 21100000 		move	$2,$0
 3702              	.L209:
 3703 2704 FF004230 		andi	$2,$2,0x00ff
 3704 2708 1000C2AF 		sw	$2,16($fp)
 3705 270c EF090008 		j	.L204
 3706 2710 00000000 		nop
 3707              	
 3708              	.L199:
 3709 2714 3800C28F 		lw	$2,56($fp)
 3710 2718 00F0427C 		ext	$2,$2,0,31
 3711 271c 00008244 		mtc1	$2,$f0
 3712 2720 21000046 		cvt.d.s	$f0,$f0
 3713 2724 00000444 		mfc1	$4,$f0
 3714 2728 00006544 		mfhc1	$5,$f0
 3715 272c 01000624 		li	$6,1			# 0x1
 3716 2730 0000023C 		lui	$2,%hi(.LC2)
 3717 2734 8C02438C 		lw	$3,%lo(.LC2+4)($2)
 3718 2738 8802428C 		lw	$2,%lo(.LC2)($2)
 3719 273c 00088444 		mtc1	$4,$f1
 3720 2740 0008E544 		mthc1	$5,$f1
 3721 2744 00008244 		mtc1	$2,$f0
 3722 2748 0000E344 		mthc1	$3,$f0
 3723 274c 370D2046 		c.ule.d	$fcc5,$f1,$f0
 3724 2750 02001545 		bc1t	$fcc5,.L210
 3725 2754 00000000 		nop
 3726              	
 3727 2758 21300000 		move	$6,$0
 3728              	.L210:
 3729 275c FF00C230 		andi	$2,$6,0x00ff
 3730 2760 01004238 		xori	$2,$2,0x1
 3731 2764 FF004230 		andi	$2,$2,0x00ff
 3732 2768 0B004014 		bne	$2,$0,.L211
GAS LISTING C:\Users\Piotrek\AppData\Local\Temp\cc9LOeNg.s 			page 68


 3733 276c 00000000 		nop
 3734              	
 3735 2770 3800C38F 		lw	$3,56($fp)
 3736 2774 3800C28F 		lw	$2,56($fp)
 3737 2778 00088344 		mtc1	$3,$f1
 3738 277c 00008244 		mtc1	$2,$f0
 3739 2780 320E0046 		c.eq.s	$fcc6,$f1,$f0
 3740 2784 04001845 		bc1f	$fcc6,.L211
 3741 2788 00000000 		nop
 3742              	
 3743 278c 01000224 		li	$2,1			# 0x1
 3744 2790 E7090008 		j	.L212
 3745 2794 00000000 		nop
 3746              	
 3747              	.L211:
 3748 2798 21100000 		move	$2,$0
 3749              	.L212:
 3750 279c 1000C2AF 		sw	$2,16($fp)
 3751 27a0 EF090008 		j	.L204
 3752 27a4 00000000 		nop
 3753              	
 3754              	.L194:
 3755 27a8 1400C0AF 		sw	$0,20($fp)
 3756 27ac 0000023C 		lui	$2,%hi(UnityStrInvalidFloatTrait)
 3757 27b0 80014224 		addiu	$2,$2,%lo(UnityStrInvalidFloatTrait)
 3758 27b4 1C00C2AF 		sw	$2,28($fp)
 3759 27b8 00000000 		nop
 3760              	.L204:
 3761 27bc 1000C38F 		lw	$3,16($fp)
 3762 27c0 1800C28F 		lw	$2,24($fp)
 3763 27c4 27006210 		beq	$3,$2,.L191
 3764 27c8 00000000 		nop
 3765              	
 3766 27cc 4000C48F 		lw	$4,64($fp)
 3767 27d0 AB04000C 		jal	UnityTestResultsFailBegin
 3768 27d4 00000000 		nop
 3769              	
 3770 27d8 0000023C 		lui	$2,%hi(UnityStrExpected)
 3771 27dc 28004424 		addiu	$4,$2,%lo(UnityStrExpected)
 3772 27e0 0000000C 		jal	UnityPrint
 3773 27e4 00000000 		nop
 3774              	
 3775 27e8 1800C28F 		lw	$2,24($fp)
 3776 27ec 05004014 		bne	$2,$0,.L214
 3777 27f0 00000000 		nop
 3778              	
 3779 27f4 0000023C 		lui	$2,%hi(UnityStrNot)
 3780 27f8 48014424 		addiu	$4,$2,%lo(UnityStrNot)
 3781 27fc 0000000C 		jal	UnityPrint
 3782 2800 00000000 		nop
 3783              	
 3784              	.L214:
 3785 2804 1400C28F 		lw	$2,20($fp)
 3786 2808 80100200 		sll	$2,$2,2
 3787 280c 1000C327 		addiu	$3,$fp,16
 3788 2810 21106200 		addu	$2,$3,$2
 3789 2814 0C00428C 		lw	$2,12($2)
GAS LISTING C:\Users\Piotrek\AppData\Local\Temp\cc9LOeNg.s 			page 69


 3790 2818 21204000 		move	$4,$2
 3791 281c 0000000C 		jal	UnityPrint
 3792 2820 00000000 		nop
 3793              	
 3794 2824 0000023C 		lui	$2,%hi(UnityStrWas)
 3795 2828 34004424 		addiu	$4,$2,%lo(UnityStrWas)
 3796 282c 0000000C 		jal	UnityPrint
 3797 2830 00000000 		nop
 3798              	
 3799 2834 3800CCC7 		lwc1	$f12,56($fp)
 3800 2838 0000000C 		jal	UnityPrintFloat
 3801 283c 00000000 		nop
 3802              	
 3803 2840 3C00C48F 		lw	$4,60($fp)
 3804 2844 F104000C 		jal	UnityAddMsgIfSpecified
 3805 2848 00000000 		nop
 3806              	
 3807 284c 01000224 		li	$2,1			# 0x1
 3808 2850 200082AF 		sw	$2,%gp_rel(Unity+32)($28)
 3809 2854 28008427 		addiu	$4,$28,%gp_rel(Unity+40)
 3810 2858 01000524 		li	$5,1			# 0x1
 3811 285c 0000000C 		jal	longjmp
 3812 2860 00000000 		nop
 3813              	
 3814              	.L191:
 3815 2864 21E8C003 		move	$sp,$fp
 3816 2868 3400BF8F 		lw	$31,52($sp)
 3817 286c 3000BE8F 		lw	$fp,48($sp)
 3818 2870 3800BD27 		addiu	$sp,$sp,56
 3819 2874 0800E003 		j	$31
 3820 2878 00000000 		nop
 3821              	
 3822              		.set	macro
 3823              		.set	reorder
 3824              	# Begin mchp_output_function_epilogue
 3825              	# End mchp_output_function_epilogue
 3826              		.end	UnityAssertFloatSpecial
 3827              		.size	UnityAssertFloatSpecial, .-UnityAssertFloatSpecial
 3828              		.align	2
 3829              		.globl	UnityAssertNumbersWithin
 3830              		.set	nomips16
 3831              		.set	nomicromips
 3832              		.ent	UnityAssertNumbersWithin
 3833              		.type	UnityAssertNumbersWithin, @function
 3834              	UnityAssertNumbersWithin:
 3835              		.frame	$fp,24,$31		# vars= 0, regs= 2/0, args= 16, gp= 0
 3836              		.mask	0xc0000000,-4
 3837              		.fmask	0x00000000,0
 3838              		.set	noreorder
 3839              		.set	nomacro
 3840              	# End mchp_output_function_prologue
 3841 287c E8FFBD27 		addiu	$sp,$sp,-24
 3842 2880 1400BFAF 		sw	$31,20($sp)
 3843 2884 1000BEAF 		sw	$fp,16($sp)
 3844 2888 21F0A003 		move	$fp,$sp
 3845 288c 1800C4AF 		sw	$4,24($fp)
 3846 2890 1C00C5AF 		sw	$5,28($fp)
GAS LISTING C:\Users\Piotrek\AppData\Local\Temp\cc9LOeNg.s 			page 70


 3847 2894 2000C6AF 		sw	$6,32($fp)
 3848 2898 2400C7AF 		sw	$7,36($fp)
 3849 289c 2000828F 		lw	$2,%gp_rel(Unity+32)($28)
 3850 28a0 04004014 		bne	$2,$0,.L218
 3851 28a4 00000000 		nop
 3852              	
 3853 28a8 2400828F 		lw	$2,%gp_rel(Unity+36)($28)
 3854 28ac 05004010 		beq	$2,$0,.L219
 3855 28b0 00000000 		nop
 3856              	
 3857              	.L218:
 3858 28b4 28008427 		addiu	$4,$28,%gp_rel(Unity+40)
 3859 28b8 01000524 		li	$5,1			# 0x1
 3860 28bc 0000000C 		jal	longjmp
 3861 28c0 00000000 		nop
 3862              	
 3863              	.L219:
 3864 28c4 2C00C28F 		lw	$2,44($fp)
 3865 28c8 10004230 		andi	$2,$2,0x10
 3866 28cc 18004010 		beq	$2,$0,.L220
 3867 28d0 00000000 		nop
 3868              	
 3869 28d4 2000C38F 		lw	$3,32($fp)
 3870 28d8 1C00C28F 		lw	$2,28($fp)
 3871 28dc 2A104300 		slt	$2,$2,$3
 3872 28e0 0A004010 		beq	$2,$0,.L221
 3873 28e4 00000000 		nop
 3874              	
 3875 28e8 2000C38F 		lw	$3,32($fp)
 3876 28ec 1C00C28F 		lw	$2,28($fp)
 3877 28f0 23186200 		subu	$3,$3,$2
 3878 28f4 1800C28F 		lw	$2,24($fp)
 3879 28f8 2B104300 		sltu	$2,$2,$3
 3880 28fc FF004230 		andi	$2,$2,0x00ff
 3881 2900 200082AF 		sw	$2,%gp_rel(Unity+32)($28)
 3882 2904 610A0008 		j	.L223
 3883 2908 00000000 		nop
 3884              	
 3885              	.L221:
 3886 290c 1C00C38F 		lw	$3,28($fp)
 3887 2910 2000C28F 		lw	$2,32($fp)
 3888 2914 23186200 		subu	$3,$3,$2
 3889 2918 1800C28F 		lw	$2,24($fp)
 3890 291c 2B104300 		sltu	$2,$2,$3
 3891 2920 FF004230 		andi	$2,$2,0x00ff
 3892 2924 200082AF 		sw	$2,%gp_rel(Unity+32)($28)
 3893 2928 610A0008 		j	.L223
 3894 292c 00000000 		nop
 3895              	
 3896              	.L220:
 3897 2930 2000C38F 		lw	$3,32($fp)
 3898 2934 1C00C28F 		lw	$2,28($fp)
 3899 2938 2B104300 		sltu	$2,$2,$3
 3900 293c 0A004010 		beq	$2,$0,.L224
 3901 2940 00000000 		nop
 3902              	
 3903 2944 2000C38F 		lw	$3,32($fp)
GAS LISTING C:\Users\Piotrek\AppData\Local\Temp\cc9LOeNg.s 			page 71


 3904 2948 1C00C28F 		lw	$2,28($fp)
 3905 294c 23186200 		subu	$3,$3,$2
 3906 2950 1800C28F 		lw	$2,24($fp)
 3907 2954 2B104300 		sltu	$2,$2,$3
 3908 2958 FF004230 		andi	$2,$2,0x00ff
 3909 295c 200082AF 		sw	$2,%gp_rel(Unity+32)($28)
 3910 2960 610A0008 		j	.L223
 3911 2964 00000000 		nop
 3912              	
 3913              	.L224:
 3914 2968 1C00C38F 		lw	$3,28($fp)
 3915 296c 2000C28F 		lw	$2,32($fp)
 3916 2970 23186200 		subu	$3,$3,$2
 3917 2974 1800C28F 		lw	$2,24($fp)
 3918 2978 2B104300 		sltu	$2,$2,$3
 3919 297c FF004230 		andi	$2,$2,0x00ff
 3920 2980 200082AF 		sw	$2,%gp_rel(Unity+32)($28)
 3921              	.L223:
 3922 2984 2000828F 		lw	$2,%gp_rel(Unity+32)($28)
 3923 2988 26004010 		beq	$2,$0,.L217
 3924 298c 00000000 		nop
 3925              	
 3926 2990 2800C48F 		lw	$4,40($fp)
 3927 2994 AB04000C 		jal	UnityTestResultsFailBegin
 3928 2998 00000000 		nop
 3929              	
 3930 299c 0000023C 		lui	$2,%hi(UnityStrDelta)
 3931 29a0 B8004424 		addiu	$4,$2,%lo(UnityStrDelta)
 3932 29a4 0000000C 		jal	UnityPrint
 3933 29a8 00000000 		nop
 3934              	
 3935 29ac 1800C28F 		lw	$2,24($fp)
 3936 29b0 21204000 		move	$4,$2
 3937 29b4 2C00C58F 		lw	$5,44($fp)
 3938 29b8 0000000C 		jal	UnityPrintNumberByStyle
 3939 29bc 00000000 		nop
 3940              	
 3941 29c0 0000023C 		lui	$2,%hi(UnityStrExpected)
 3942 29c4 28004424 		addiu	$4,$2,%lo(UnityStrExpected)
 3943 29c8 0000000C 		jal	UnityPrint
 3944 29cc 00000000 		nop
 3945              	
 3946 29d0 1C00C48F 		lw	$4,28($fp)
 3947 29d4 2C00C58F 		lw	$5,44($fp)
 3948 29d8 0000000C 		jal	UnityPrintNumberByStyle
 3949 29dc 00000000 		nop
 3950              	
 3951 29e0 0000023C 		lui	$2,%hi(UnityStrWas)
 3952 29e4 34004424 		addiu	$4,$2,%lo(UnityStrWas)
 3953 29e8 0000000C 		jal	UnityPrint
 3954 29ec 00000000 		nop
 3955              	
 3956 29f0 2000C48F 		lw	$4,32($fp)
 3957 29f4 2C00C58F 		lw	$5,44($fp)
 3958 29f8 0000000C 		jal	UnityPrintNumberByStyle
 3959 29fc 00000000 		nop
 3960              	
GAS LISTING C:\Users\Piotrek\AppData\Local\Temp\cc9LOeNg.s 			page 72


 3961 2a00 2400C48F 		lw	$4,36($fp)
 3962 2a04 F104000C 		jal	UnityAddMsgIfSpecified
 3963 2a08 00000000 		nop
 3964              	
 3965 2a0c 01000224 		li	$2,1			# 0x1
 3966 2a10 200082AF 		sw	$2,%gp_rel(Unity+32)($28)
 3967 2a14 28008427 		addiu	$4,$28,%gp_rel(Unity+40)
 3968 2a18 01000524 		li	$5,1			# 0x1
 3969 2a1c 0000000C 		jal	longjmp
 3970 2a20 00000000 		nop
 3971              	
 3972              	.L217:
 3973 2a24 21E8C003 		move	$sp,$fp
 3974 2a28 1400BF8F 		lw	$31,20($sp)
 3975 2a2c 1000BE8F 		lw	$fp,16($sp)
 3976 2a30 1800BD27 		addiu	$sp,$sp,24
 3977 2a34 0800E003 		j	$31
 3978 2a38 00000000 		nop
 3979              	
 3980              		.set	macro
 3981              		.set	reorder
 3982              	# Begin mchp_output_function_epilogue
 3983              	# End mchp_output_function_epilogue
 3984              		.end	UnityAssertNumbersWithin
 3985              		.size	UnityAssertNumbersWithin, .-UnityAssertNumbersWithin
 3986              		.align	2
 3987              		.globl	UnityAssertNumbersArrayWithin
 3988              		.set	nomips16
 3989              		.set	nomicromips
 3990              		.ent	UnityAssertNumbersArrayWithin
 3991              		.type	UnityAssertNumbersArrayWithin, @function
 3992              	UnityAssertNumbersArrayWithin:
 3993              		.frame	$fp,48,$31		# vars= 24, regs= 2/0, args= 16, gp= 0
 3994              		.mask	0xc0000000,-4
 3995              		.fmask	0x00000000,0
 3996              		.set	noreorder
 3997              		.set	nomacro
 3998              	# End mchp_output_function_prologue
 3999 2a3c D0FFBD27 		addiu	$sp,$sp,-48
 4000 2a40 2C00BFAF 		sw	$31,44($sp)
 4001 2a44 2800BEAF 		sw	$fp,40($sp)
 4002 2a48 21F0A003 		move	$fp,$sp
 4003 2a4c 3000C4AF 		sw	$4,48($fp)
 4004 2a50 3400C5AF 		sw	$5,52($fp)
 4005 2a54 3800C6AF 		sw	$6,56($fp)
 4006 2a58 3C00C7AF 		sw	$7,60($fp)
 4007 2a5c 3C00C28F 		lw	$2,60($fp)
 4008 2a60 1000C2AF 		sw	$2,16($fp)
 4009 2a64 4800C28F 		lw	$2,72($fp)
 4010 2a68 0F004230 		andi	$2,$2,0xf
 4011 2a6c 1400C2AF 		sw	$2,20($fp)
 4012 2a70 1800C0AF 		sw	$0,24($fp)
 4013 2a74 2000828F 		lw	$2,%gp_rel(Unity+32)($28)
 4014 2a78 04004014 		bne	$2,$0,.L227
 4015 2a7c 00000000 		nop
 4016              	
 4017 2a80 2400828F 		lw	$2,%gp_rel(Unity+36)($28)
GAS LISTING C:\Users\Piotrek\AppData\Local\Temp\cc9LOeNg.s 			page 73


 4018 2a84 05004010 		beq	$2,$0,.L228
 4019 2a88 00000000 		nop
 4020              	
 4021              	.L227:
 4022 2a8c 28008427 		addiu	$4,$28,%gp_rel(Unity+40)
 4023 2a90 01000524 		li	$5,1			# 0x1
 4024 2a94 0000000C 		jal	longjmp
 4025 2a98 00000000 		nop
 4026              	
 4027              	.L228:
 4028 2a9c 3C00C28F 		lw	$2,60($fp)
 4029 2aa0 11004014 		bne	$2,$0,.L229
 4030 2aa4 00000000 		nop
 4031              	
 4032 2aa8 4400C48F 		lw	$4,68($fp)
 4033 2aac AB04000C 		jal	UnityTestResultsFailBegin
 4034 2ab0 00000000 		nop
 4035              	
 4036 2ab4 0000023C 		lui	$2,%hi(UnityStrPointless)
 4037 2ab8 D4004424 		addiu	$4,$2,%lo(UnityStrPointless)
 4038 2abc 0000000C 		jal	UnityPrint
 4039 2ac0 00000000 		nop
 4040              	
 4041 2ac4 4000C48F 		lw	$4,64($fp)
 4042 2ac8 F104000C 		jal	UnityAddMsgIfSpecified
 4043 2acc 00000000 		nop
 4044              	
 4045 2ad0 01000224 		li	$2,1			# 0x1
 4046 2ad4 200082AF 		sw	$2,%gp_rel(Unity+32)($28)
 4047 2ad8 28008427 		addiu	$4,$28,%gp_rel(Unity+40)
 4048 2adc 01000524 		li	$5,1			# 0x1
 4049 2ae0 0000000C 		jal	longjmp
 4050 2ae4 00000000 		nop
 4051              	
 4052              	.L229:
 4053 2ae8 3400C38F 		lw	$3,52($fp)
 4054 2aec 3800C28F 		lw	$2,56($fp)
 4055 2af0 03006214 		bne	$3,$2,.L230
 4056 2af4 00000000 		nop
 4057              	
 4058 2af8 870B0008 		j	.L226
 4059 2afc 00000000 		nop
 4060              	
 4061              	.L230:
 4062 2b00 3400C48F 		lw	$4,52($fp)
 4063 2b04 3800C58F 		lw	$5,56($fp)
 4064 2b08 4400C68F 		lw	$6,68($fp)
 4065 2b0c 4000C78F 		lw	$7,64($fp)
 4066 2b10 AB05000C 		jal	UnityIsOneArrayNull
 4067 2b14 00000000 		nop
 4068              	
 4069 2b18 07004010 		beq	$2,$0,.L232
 4070 2b1c 00000000 		nop
 4071              	
 4072 2b20 01000224 		li	$2,1			# 0x1
 4073 2b24 200082AF 		sw	$2,%gp_rel(Unity+32)($28)
 4074 2b28 28008427 		addiu	$4,$28,%gp_rel(Unity+40)
GAS LISTING C:\Users\Piotrek\AppData\Local\Temp\cc9LOeNg.s 			page 74


 4075 2b2c 01000524 		li	$5,1			# 0x1
 4076 2b30 0000000C 		jal	longjmp
 4077 2b34 00000000 		nop
 4078              	
 4079              	.L232:
 4080 2b38 7F0B0008 		j	.L233
 4081 2b3c 00000000 		nop
 4082              	
 4083              	.L246:
 4084 2b40 1400C28F 		lw	$2,20($fp)
 4085 2b44 01000324 		li	$3,1			# 0x1
 4086 2b48 06004310 		beq	$2,$3,.L235
 4087 2b4c 00000000 		nop
 4088              	
 4089 2b50 02000324 		li	$3,2			# 0x2
 4090 2b54 0D004310 		beq	$2,$3,.L236
 4091 2b58 00000000 		nop
 4092              	
 4093 2b5c ED0A0008 		j	.L247
 4094 2b60 00000000 		nop
 4095              	
 4096              	.L235:
 4097 2b64 3400C28F 		lw	$2,52($fp)
 4098 2b68 00004280 		lb	$2,0($2)
 4099 2b6c 1C00C2AF 		sw	$2,28($fp)
 4100 2b70 3800C28F 		lw	$2,56($fp)
 4101 2b74 00004280 		lb	$2,0($2)
 4102 2b78 2000C2AF 		sw	$2,32($fp)
 4103 2b7c 01000224 		li	$2,1			# 0x1
 4104 2b80 1800C2AF 		sw	$2,24($fp)
 4105 2b84 F80A0008 		j	.L237
 4106 2b88 00000000 		nop
 4107              	
 4108              	.L236:
 4109 2b8c 3400C28F 		lw	$2,52($fp)
 4110 2b90 00004284 		lh	$2,0($2)
 4111 2b94 1C00C2AF 		sw	$2,28($fp)
 4112 2b98 3800C28F 		lw	$2,56($fp)
 4113 2b9c 00004284 		lh	$2,0($2)
 4114 2ba0 2000C2AF 		sw	$2,32($fp)
 4115 2ba4 02000224 		li	$2,2			# 0x2
 4116 2ba8 1800C2AF 		sw	$2,24($fp)
 4117 2bac F80A0008 		j	.L237
 4118 2bb0 00000000 		nop
 4119              	
 4120              	.L247:
 4121 2bb4 3400C28F 		lw	$2,52($fp)
 4122 2bb8 0000428C 		lw	$2,0($2)
 4123 2bbc 1C00C2AF 		sw	$2,28($fp)
 4124 2bc0 3800C28F 		lw	$2,56($fp)
 4125 2bc4 0000428C 		lw	$2,0($2)
 4126 2bc8 2000C2AF 		sw	$2,32($fp)
 4127 2bcc 04000224 		li	$2,4			# 0x4
 4128 2bd0 1800C2AF 		sw	$2,24($fp)
 4129 2bd4 04000224 		li	$2,4			# 0x4
 4130 2bd8 1400C2AF 		sw	$2,20($fp)
 4131 2bdc 00000000 		nop
GAS LISTING C:\Users\Piotrek\AppData\Local\Temp\cc9LOeNg.s 			page 75


 4132              	.L237:
 4133 2be0 4800C28F 		lw	$2,72($fp)
 4134 2be4 10004230 		andi	$2,$2,0x10
 4135 2be8 18004010 		beq	$2,$0,.L238
 4136 2bec 00000000 		nop
 4137              	
 4138 2bf0 2000C38F 		lw	$3,32($fp)
 4139 2bf4 1C00C28F 		lw	$2,28($fp)
 4140 2bf8 2A104300 		slt	$2,$2,$3
 4141 2bfc 0A004010 		beq	$2,$0,.L239
 4142 2c00 00000000 		nop
 4143              	
 4144 2c04 2000C38F 		lw	$3,32($fp)
 4145 2c08 1C00C28F 		lw	$2,28($fp)
 4146 2c0c 23186200 		subu	$3,$3,$2
 4147 2c10 3000C28F 		lw	$2,48($fp)
 4148 2c14 2B104300 		sltu	$2,$2,$3
 4149 2c18 FF004230 		andi	$2,$2,0x00ff
 4150 2c1c 200082AF 		sw	$2,%gp_rel(Unity+32)($28)
 4151 2c20 280B0008 		j	.L241
 4152 2c24 00000000 		nop
 4153              	
 4154              	.L239:
 4155 2c28 1C00C38F 		lw	$3,28($fp)
 4156 2c2c 2000C28F 		lw	$2,32($fp)
 4157 2c30 23186200 		subu	$3,$3,$2
 4158 2c34 3000C28F 		lw	$2,48($fp)
 4159 2c38 2B104300 		sltu	$2,$2,$3
 4160 2c3c FF004230 		andi	$2,$2,0x00ff
 4161 2c40 200082AF 		sw	$2,%gp_rel(Unity+32)($28)
 4162 2c44 280B0008 		j	.L241
 4163 2c48 00000000 		nop
 4164              	
 4165              	.L238:
 4166 2c4c 2000C38F 		lw	$3,32($fp)
 4167 2c50 1C00C28F 		lw	$2,28($fp)
 4168 2c54 2B104300 		sltu	$2,$2,$3
 4169 2c58 0A004010 		beq	$2,$0,.L242
 4170 2c5c 00000000 		nop
 4171              	
 4172 2c60 2000C38F 		lw	$3,32($fp)
 4173 2c64 1C00C28F 		lw	$2,28($fp)
 4174 2c68 23186200 		subu	$3,$3,$2
 4175 2c6c 3000C28F 		lw	$2,48($fp)
 4176 2c70 2B104300 		sltu	$2,$2,$3
 4177 2c74 FF004230 		andi	$2,$2,0x00ff
 4178 2c78 200082AF 		sw	$2,%gp_rel(Unity+32)($28)
 4179 2c7c 280B0008 		j	.L241
 4180 2c80 00000000 		nop
 4181              	
 4182              	.L242:
 4183 2c84 1C00C38F 		lw	$3,28($fp)
 4184 2c88 2000C28F 		lw	$2,32($fp)
 4185 2c8c 23186200 		subu	$3,$3,$2
 4186 2c90 3000C28F 		lw	$2,48($fp)
 4187 2c94 2B104300 		sltu	$2,$2,$3
 4188 2c98 FF004230 		andi	$2,$2,0x00ff
GAS LISTING C:\Users\Piotrek\AppData\Local\Temp\cc9LOeNg.s 			page 76


 4189 2c9c 200082AF 		sw	$2,%gp_rel(Unity+32)($28)
 4190              	.L241:
 4191 2ca0 2000828F 		lw	$2,%gp_rel(Unity+32)($28)
 4192 2ca4 49004010 		beq	$2,$0,.L243
 4193 2ca8 00000000 		nop
 4194              	
 4195 2cac 4800C28F 		lw	$2,72($fp)
 4196 2cb0 20004230 		andi	$2,$2,0x20
 4197 2cb4 15004010 		beq	$2,$0,.L244
 4198 2cb8 00000000 		nop
 4199              	
 4200 2cbc 1400C28F 		lw	$2,20($fp)
 4201 2cc0 0400422C 		sltu	$2,$2,4
 4202 2cc4 11004010 		beq	$2,$0,.L244
 4203 2cc8 00000000 		nop
 4204              	
 4205 2ccc 01000224 		li	$2,1			# 0x1
 4206 2cd0 2400C2AF 		sw	$2,36($fp)
 4207 2cd4 1400C28F 		lw	$2,20($fp)
 4208 2cd8 C0100200 		sll	$2,$2,3
 4209 2cdc 2400C38F 		lw	$3,36($fp)
 4210 2ce0 04104300 		sll	$2,$3,$2
 4211 2ce4 FFFF4224 		addiu	$2,$2,-1
 4212 2ce8 2400C2AF 		sw	$2,36($fp)
 4213 2cec 1C00C38F 		lw	$3,28($fp)
 4214 2cf0 2400C28F 		lw	$2,36($fp)
 4215 2cf4 24106200 		and	$2,$3,$2
 4216 2cf8 1C00C2AF 		sw	$2,28($fp)
 4217 2cfc 2000C38F 		lw	$3,32($fp)
 4218 2d00 2400C28F 		lw	$2,36($fp)
 4219 2d04 24106200 		and	$2,$3,$2
 4220 2d08 2000C2AF 		sw	$2,32($fp)
 4221              	.L244:
 4222 2d0c 4400C48F 		lw	$4,68($fp)
 4223 2d10 AB04000C 		jal	UnityTestResultsFailBegin
 4224 2d14 00000000 		nop
 4225              	
 4226 2d18 0000023C 		lui	$2,%hi(UnityStrDelta)
 4227 2d1c B8004424 		addiu	$4,$2,%lo(UnityStrDelta)
 4228 2d20 0000000C 		jal	UnityPrint
 4229 2d24 00000000 		nop
 4230              	
 4231 2d28 3000C28F 		lw	$2,48($fp)
 4232 2d2c 21204000 		move	$4,$2
 4233 2d30 4800C58F 		lw	$5,72($fp)
 4234 2d34 0000000C 		jal	UnityPrintNumberByStyle
 4235 2d38 00000000 		nop
 4236              	
 4237 2d3c 0000023C 		lui	$2,%hi(UnityStrElement)
 4238 2d40 90004424 		addiu	$4,$2,%lo(UnityStrElement)
 4239 2d44 0000000C 		jal	UnityPrint
 4240 2d48 00000000 		nop
 4241              	
 4242 2d4c 3C00C38F 		lw	$3,60($fp)
 4243 2d50 1000C28F 		lw	$2,16($fp)
 4244 2d54 23106200 		subu	$2,$3,$2
 4245 2d58 FFFF4224 		addiu	$2,$2,-1
GAS LISTING C:\Users\Piotrek\AppData\Local\Temp\cc9LOeNg.s 			page 77


 4246 2d5c 21204000 		move	$4,$2
 4247 2d60 0000000C 		jal	UnityPrintNumberUnsigned
 4248 2d64 00000000 		nop
 4249              	
 4250 2d68 0000023C 		lui	$2,%hi(UnityStrExpected)
 4251 2d6c 28004424 		addiu	$4,$2,%lo(UnityStrExpected)
 4252 2d70 0000000C 		jal	UnityPrint
 4253 2d74 00000000 		nop
 4254              	
 4255 2d78 1C00C48F 		lw	$4,28($fp)
 4256 2d7c 4800C58F 		lw	$5,72($fp)
 4257 2d80 0000000C 		jal	UnityPrintNumberByStyle
 4258 2d84 00000000 		nop
 4259              	
 4260 2d88 0000023C 		lui	$2,%hi(UnityStrWas)
 4261 2d8c 34004424 		addiu	$4,$2,%lo(UnityStrWas)
 4262 2d90 0000000C 		jal	UnityPrint
 4263 2d94 00000000 		nop
 4264              	
 4265 2d98 2000C48F 		lw	$4,32($fp)
 4266 2d9c 4800C58F 		lw	$5,72($fp)
 4267 2da0 0000000C 		jal	UnityPrintNumberByStyle
 4268 2da4 00000000 		nop
 4269              	
 4270 2da8 4000C48F 		lw	$4,64($fp)
 4271 2dac F104000C 		jal	UnityAddMsgIfSpecified
 4272 2db0 00000000 		nop
 4273              	
 4274 2db4 01000224 		li	$2,1			# 0x1
 4275 2db8 200082AF 		sw	$2,%gp_rel(Unity+32)($28)
 4276 2dbc 28008427 		addiu	$4,$28,%gp_rel(Unity+40)
 4277 2dc0 01000524 		li	$5,1			# 0x1
 4278 2dc4 0000000C 		jal	longjmp
 4279 2dc8 00000000 		nop
 4280              	
 4281              	.L243:
 4282 2dcc 4C00C38F 		lw	$3,76($fp)
 4283 2dd0 01000224 		li	$2,1			# 0x1
 4284 2dd4 05006214 		bne	$3,$2,.L245
 4285 2dd8 00000000 		nop
 4286              	
 4287 2ddc 3400C38F 		lw	$3,52($fp)
 4288 2de0 1800C28F 		lw	$2,24($fp)
 4289 2de4 21106200 		addu	$2,$3,$2
 4290 2de8 3400C2AF 		sw	$2,52($fp)
 4291              	.L245:
 4292 2dec 3800C38F 		lw	$3,56($fp)
 4293 2df0 1800C28F 		lw	$2,24($fp)
 4294 2df4 21106200 		addu	$2,$3,$2
 4295 2df8 3800C2AF 		sw	$2,56($fp)
 4296              	.L233:
 4297 2dfc 1000C28F 		lw	$2,16($fp)
 4298 2e00 06004010 		beq	$2,$0,.L226
 4299 2e04 00000000 		nop
 4300              	
 4301 2e08 1000C28F 		lw	$2,16($fp)
 4302 2e0c FFFF4324 		addiu	$3,$2,-1
GAS LISTING C:\Users\Piotrek\AppData\Local\Temp\cc9LOeNg.s 			page 78


 4303 2e10 1000C3AF 		sw	$3,16($fp)
 4304 2e14 4AFF4014 		bne	$2,$0,.L246
 4305 2e18 00000000 		nop
 4306              	
 4307              	.L226:
 4308 2e1c 21E8C003 		move	$sp,$fp
 4309 2e20 2C00BF8F 		lw	$31,44($sp)
 4310 2e24 2800BE8F 		lw	$fp,40($sp)
 4311 2e28 3000BD27 		addiu	$sp,$sp,48
 4312 2e2c 0800E003 		j	$31
 4313 2e30 00000000 		nop
 4314              	
 4315              		.set	macro
 4316              		.set	reorder
 4317              	# Begin mchp_output_function_epilogue
 4318              	# End mchp_output_function_epilogue
 4319              		.end	UnityAssertNumbersArrayWithin
 4320              		.size	UnityAssertNumbersArrayWithin, .-UnityAssertNumbersArrayWithin
 4321              		.align	2
 4322              		.globl	UnityAssertEqualString
 4323              		.set	nomips16
 4324              		.set	nomicromips
 4325              		.ent	UnityAssertEqualString
 4326              		.type	UnityAssertEqualString, @function
 4327              	UnityAssertEqualString:
 4328              		.frame	$fp,32,$31		# vars= 8, regs= 2/0, args= 16, gp= 0
 4329              		.mask	0xc0000000,-4
 4330              		.fmask	0x00000000,0
 4331              		.set	noreorder
 4332              		.set	nomacro
 4333              	# End mchp_output_function_prologue
 4334 2e34 E0FFBD27 		addiu	$sp,$sp,-32
 4335 2e38 1C00BFAF 		sw	$31,28($sp)
 4336 2e3c 1800BEAF 		sw	$fp,24($sp)
 4337 2e40 21F0A003 		move	$fp,$sp
 4338 2e44 2000C4AF 		sw	$4,32($fp)
 4339 2e48 2400C5AF 		sw	$5,36($fp)
 4340 2e4c 2800C6AF 		sw	$6,40($fp)
 4341 2e50 2C00C7AF 		sw	$7,44($fp)
 4342 2e54 2000828F 		lw	$2,%gp_rel(Unity+32)($28)
 4343 2e58 04004014 		bne	$2,$0,.L249
 4344 2e5c 00000000 		nop
 4345              	
 4346 2e60 2400828F 		lw	$2,%gp_rel(Unity+36)($28)
 4347 2e64 05004010 		beq	$2,$0,.L250
 4348 2e68 00000000 		nop
 4349              	
 4350              	.L249:
 4351 2e6c 28008427 		addiu	$4,$28,%gp_rel(Unity+40)
 4352 2e70 01000524 		li	$5,1			# 0x1
 4353 2e74 0000000C 		jal	longjmp
 4354 2e78 00000000 		nop
 4355              	
 4356              	.L250:
 4357 2e7c 2000C28F 		lw	$2,32($fp)
 4358 2e80 26004010 		beq	$2,$0,.L251
 4359 2e84 00000000 		nop
GAS LISTING C:\Users\Piotrek\AppData\Local\Temp\cc9LOeNg.s 			page 79


 4360              	
 4361 2e88 2400C28F 		lw	$2,36($fp)
 4362 2e8c 23004010 		beq	$2,$0,.L251
 4363 2e90 00000000 		nop
 4364              	
 4365 2e94 1000C0AF 		sw	$0,16($fp)
 4366 2e98 B90B0008 		j	.L252
 4367 2e9c 00000000 		nop
 4368              	
 4369              	.L255:
 4370 2ea0 2000C38F 		lw	$3,32($fp)
 4371 2ea4 1000C28F 		lw	$2,16($fp)
 4372 2ea8 21106200 		addu	$2,$3,$2
 4373 2eac 00004380 		lb	$3,0($2)
 4374 2eb0 2400C48F 		lw	$4,36($fp)
 4375 2eb4 1000C28F 		lw	$2,16($fp)
 4376 2eb8 21108200 		addu	$2,$4,$2
 4377 2ebc 00004280 		lb	$2,0($2)
 4378 2ec0 05006210 		beq	$3,$2,.L253
 4379 2ec4 00000000 		nop
 4380              	
 4381 2ec8 01000224 		li	$2,1			# 0x1
 4382 2ecc 200082AF 		sw	$2,%gp_rel(Unity+32)($28)
 4383 2ed0 C50B0008 		j	.L254
 4384 2ed4 00000000 		nop
 4385              	
 4386              	.L253:
 4387 2ed8 1000C28F 		lw	$2,16($fp)
 4388 2edc 01004224 		addiu	$2,$2,1
 4389 2ee0 1000C2AF 		sw	$2,16($fp)
 4390              	.L252:
 4391 2ee4 2000C38F 		lw	$3,32($fp)
 4392 2ee8 1000C28F 		lw	$2,16($fp)
 4393 2eec 21106200 		addu	$2,$3,$2
 4394 2ef0 00004280 		lb	$2,0($2)
 4395 2ef4 EAFF4014 		bne	$2,$0,.L255
 4396 2ef8 00000000 		nop
 4397              	
 4398 2efc 2400C38F 		lw	$3,36($fp)
 4399 2f00 1000C28F 		lw	$2,16($fp)
 4400 2f04 21106200 		addu	$2,$3,$2
 4401 2f08 00004280 		lb	$2,0($2)
 4402 2f0c E4FF4014 		bne	$2,$0,.L255
 4403 2f10 00000000 		nop
 4404              	
 4405              	.L254:
 4406 2f14 CD0B0008 		j	.L256
 4407 2f18 00000000 		nop
 4408              	
 4409              	.L251:
 4410 2f1c 2000C38F 		lw	$3,32($fp)
 4411 2f20 2400C28F 		lw	$2,36($fp)
 4412 2f24 03006210 		beq	$3,$2,.L256
 4413 2f28 00000000 		nop
 4414              	
 4415 2f2c 01000224 		li	$2,1			# 0x1
 4416 2f30 200082AF 		sw	$2,%gp_rel(Unity+32)($28)
GAS LISTING C:\Users\Piotrek\AppData\Local\Temp\cc9LOeNg.s 			page 80


 4417              	.L256:
 4418 2f34 2000828F 		lw	$2,%gp_rel(Unity+32)($28)
 4419 2f38 11004010 		beq	$2,$0,.L248
 4420 2f3c 00000000 		nop
 4421              	
 4422 2f40 2C00C48F 		lw	$4,44($fp)
 4423 2f44 AB04000C 		jal	UnityTestResultsFailBegin
 4424 2f48 00000000 		nop
 4425              	
 4426 2f4c 2000C48F 		lw	$4,32($fp)
 4427 2f50 2400C58F 		lw	$5,36($fp)
 4428 2f54 2005000C 		jal	UnityPrintExpectedAndActualStrings
 4429 2f58 00000000 		nop
 4430              	
 4431 2f5c 2800C48F 		lw	$4,40($fp)
 4432 2f60 F104000C 		jal	UnityAddMsgIfSpecified
 4433 2f64 00000000 		nop
 4434              	
 4435 2f68 01000224 		li	$2,1			# 0x1
 4436 2f6c 200082AF 		sw	$2,%gp_rel(Unity+32)($28)
 4437 2f70 28008427 		addiu	$4,$28,%gp_rel(Unity+40)
 4438 2f74 01000524 		li	$5,1			# 0x1
 4439 2f78 0000000C 		jal	longjmp
 4440 2f7c 00000000 		nop
 4441              	
 4442              	.L248:
 4443 2f80 21E8C003 		move	$sp,$fp
 4444 2f84 1C00BF8F 		lw	$31,28($sp)
 4445 2f88 1800BE8F 		lw	$fp,24($sp)
 4446 2f8c 2000BD27 		addiu	$sp,$sp,32
 4447 2f90 0800E003 		j	$31
 4448 2f94 00000000 		nop
 4449              	
 4450              		.set	macro
 4451              		.set	reorder
 4452              	# Begin mchp_output_function_epilogue
 4453              	# End mchp_output_function_epilogue
 4454              		.end	UnityAssertEqualString
 4455              		.size	UnityAssertEqualString, .-UnityAssertEqualString
 4456              		.align	2
 4457              		.globl	UnityAssertEqualStringLen
 4458              		.set	nomips16
 4459              		.set	nomicromips
 4460              		.ent	UnityAssertEqualStringLen
 4461              		.type	UnityAssertEqualStringLen, @function
 4462              	UnityAssertEqualStringLen:
 4463              		.frame	$fp,32,$31		# vars= 8, regs= 2/0, args= 16, gp= 0
 4464              		.mask	0xc0000000,-4
 4465              		.fmask	0x00000000,0
 4466              		.set	noreorder
 4467              		.set	nomacro
 4468              	# End mchp_output_function_prologue
 4469 2f98 E0FFBD27 		addiu	$sp,$sp,-32
 4470 2f9c 1C00BFAF 		sw	$31,28($sp)
 4471 2fa0 1800BEAF 		sw	$fp,24($sp)
 4472 2fa4 21F0A003 		move	$fp,$sp
 4473 2fa8 2000C4AF 		sw	$4,32($fp)
GAS LISTING C:\Users\Piotrek\AppData\Local\Temp\cc9LOeNg.s 			page 81


 4474 2fac 2400C5AF 		sw	$5,36($fp)
 4475 2fb0 2800C6AF 		sw	$6,40($fp)
 4476 2fb4 2C00C7AF 		sw	$7,44($fp)
 4477 2fb8 2000828F 		lw	$2,%gp_rel(Unity+32)($28)
 4478 2fbc 04004014 		bne	$2,$0,.L259
 4479 2fc0 00000000 		nop
 4480              	
 4481 2fc4 2400828F 		lw	$2,%gp_rel(Unity+36)($28)
 4482 2fc8 05004010 		beq	$2,$0,.L260
 4483 2fcc 00000000 		nop
 4484              	
 4485              	.L259:
 4486 2fd0 28008427 		addiu	$4,$28,%gp_rel(Unity+40)
 4487 2fd4 01000524 		li	$5,1			# 0x1
 4488 2fd8 0000000C 		jal	longjmp
 4489 2fdc 00000000 		nop
 4490              	
 4491              	.L260:
 4492 2fe0 2000C28F 		lw	$2,32($fp)
 4493 2fe4 2B004010 		beq	$2,$0,.L261
 4494 2fe8 00000000 		nop
 4495              	
 4496 2fec 2400C28F 		lw	$2,36($fp)
 4497 2ff0 28004010 		beq	$2,$0,.L261
 4498 2ff4 00000000 		nop
 4499              	
 4500 2ff8 1000C0AF 		sw	$0,16($fp)
 4501 2ffc 120C0008 		j	.L262
 4502 3000 00000000 		nop
 4503              	
 4504              	.L265:
 4505 3004 2000C38F 		lw	$3,32($fp)
 4506 3008 1000C28F 		lw	$2,16($fp)
 4507 300c 21106200 		addu	$2,$3,$2
 4508 3010 00004380 		lb	$3,0($2)
 4509 3014 2400C48F 		lw	$4,36($fp)
 4510 3018 1000C28F 		lw	$2,16($fp)
 4511 301c 21108200 		addu	$2,$4,$2
 4512 3020 00004280 		lb	$2,0($2)
 4513 3024 05006210 		beq	$3,$2,.L263
 4514 3028 00000000 		nop
 4515              	
 4516 302c 01000224 		li	$2,1			# 0x1
 4517 3030 200082AF 		sw	$2,%gp_rel(Unity+32)($28)
 4518 3034 230C0008 		j	.L264
 4519 3038 00000000 		nop
 4520              	
 4521              	.L263:
 4522 303c 1000C28F 		lw	$2,16($fp)
 4523 3040 01004224 		addiu	$2,$2,1
 4524 3044 1000C2AF 		sw	$2,16($fp)
 4525              	.L262:
 4526 3048 1000C38F 		lw	$3,16($fp)
 4527 304c 2800C28F 		lw	$2,40($fp)
 4528 3050 2B106200 		sltu	$2,$3,$2
 4529 3054 0D004010 		beq	$2,$0,.L264
 4530 3058 00000000 		nop
GAS LISTING C:\Users\Piotrek\AppData\Local\Temp\cc9LOeNg.s 			page 82


 4531              	
 4532 305c 2000C38F 		lw	$3,32($fp)
 4533 3060 1000C28F 		lw	$2,16($fp)
 4534 3064 21106200 		addu	$2,$3,$2
 4535 3068 00004280 		lb	$2,0($2)
 4536 306c E5FF4014 		bne	$2,$0,.L265
 4537 3070 00000000 		nop
 4538              	
 4539 3074 2400C38F 		lw	$3,36($fp)
 4540 3078 1000C28F 		lw	$2,16($fp)
 4541 307c 21106200 		addu	$2,$3,$2
 4542 3080 00004280 		lb	$2,0($2)
 4543 3084 DFFF4014 		bne	$2,$0,.L265
 4544 3088 00000000 		nop
 4545              	
 4546              	.L264:
 4547 308c 2B0C0008 		j	.L266
 4548 3090 00000000 		nop
 4549              	
 4550              	.L261:
 4551 3094 2000C38F 		lw	$3,32($fp)
 4552 3098 2400C28F 		lw	$2,36($fp)
 4553 309c 03006210 		beq	$3,$2,.L266
 4554 30a0 00000000 		nop
 4555              	
 4556 30a4 01000224 		li	$2,1			# 0x1
 4557 30a8 200082AF 		sw	$2,%gp_rel(Unity+32)($28)
 4558              	.L266:
 4559 30ac 2000828F 		lw	$2,%gp_rel(Unity+32)($28)
 4560 30b0 12004010 		beq	$2,$0,.L258
 4561 30b4 00000000 		nop
 4562              	
 4563 30b8 3000C48F 		lw	$4,48($fp)
 4564 30bc AB04000C 		jal	UnityTestResultsFailBegin
 4565 30c0 00000000 		nop
 4566              	
 4567 30c4 2000C48F 		lw	$4,32($fp)
 4568 30c8 2400C58F 		lw	$5,36($fp)
 4569 30cc 2800C68F 		lw	$6,40($fp)
 4570 30d0 6405000C 		jal	UnityPrintExpectedAndActualStringsLen
 4571 30d4 00000000 		nop
 4572              	
 4573 30d8 2C00C48F 		lw	$4,44($fp)
 4574 30dc F104000C 		jal	UnityAddMsgIfSpecified
 4575 30e0 00000000 		nop
 4576              	
 4577 30e4 01000224 		li	$2,1			# 0x1
 4578 30e8 200082AF 		sw	$2,%gp_rel(Unity+32)($28)
 4579 30ec 28008427 		addiu	$4,$28,%gp_rel(Unity+40)
 4580 30f0 01000524 		li	$5,1			# 0x1
 4581 30f4 0000000C 		jal	longjmp
 4582 30f8 00000000 		nop
 4583              	
 4584              	.L258:
 4585 30fc 21E8C003 		move	$sp,$fp
 4586 3100 1C00BF8F 		lw	$31,28($sp)
 4587 3104 1800BE8F 		lw	$fp,24($sp)
GAS LISTING C:\Users\Piotrek\AppData\Local\Temp\cc9LOeNg.s 			page 83


 4588 3108 2000BD27 		addiu	$sp,$sp,32
 4589 310c 0800E003 		j	$31
 4590 3110 00000000 		nop
 4591              	
 4592              		.set	macro
 4593              		.set	reorder
 4594              	# Begin mchp_output_function_epilogue
 4595              	# End mchp_output_function_epilogue
 4596              		.end	UnityAssertEqualStringLen
 4597              		.size	UnityAssertEqualStringLen, .-UnityAssertEqualStringLen
 4598              		.align	2
 4599              		.globl	UnityAssertEqualStringArray
 4600              		.set	nomips16
 4601              		.set	nomicromips
 4602              		.ent	UnityAssertEqualStringArray
 4603              		.type	UnityAssertEqualStringArray, @function
 4604              	UnityAssertEqualStringArray:
 4605              		.frame	$fp,40,$31		# vars= 16, regs= 2/0, args= 16, gp= 0
 4606              		.mask	0xc0000000,-4
 4607              		.fmask	0x00000000,0
 4608              		.set	noreorder
 4609              		.set	nomacro
 4610              	# End mchp_output_function_prologue
 4611 3114 D8FFBD27 		addiu	$sp,$sp,-40
 4612 3118 2400BFAF 		sw	$31,36($sp)
 4613 311c 2000BEAF 		sw	$fp,32($sp)
 4614 3120 21F0A003 		move	$fp,$sp
 4615 3124 2800C4AF 		sw	$4,40($fp)
 4616 3128 2C00C5AF 		sw	$5,44($fp)
 4617 312c 3000C6AF 		sw	$6,48($fp)
 4618 3130 3400C7AF 		sw	$7,52($fp)
 4619 3134 1000C0AF 		sw	$0,16($fp)
 4620 3138 1400C0AF 		sw	$0,20($fp)
 4621 313c 1800C0AF 		sw	$0,24($fp)
 4622 3140 1C00C0AF 		sw	$0,28($fp)
 4623 3144 2000828F 		lw	$2,%gp_rel(Unity+32)($28)
 4624 3148 04004014 		bne	$2,$0,.L269
 4625 314c 00000000 		nop
 4626              	
 4627 3150 2400828F 		lw	$2,%gp_rel(Unity+36)($28)
 4628 3154 05004010 		beq	$2,$0,.L270
 4629 3158 00000000 		nop
 4630              	
 4631              	.L269:
 4632 315c 28008427 		addiu	$4,$28,%gp_rel(Unity+40)
 4633 3160 01000524 		li	$5,1			# 0x1
 4634 3164 0000000C 		jal	longjmp
 4635 3168 00000000 		nop
 4636              	
 4637              	.L270:
 4638 316c 3000C28F 		lw	$2,48($fp)
 4639 3170 11004014 		bne	$2,$0,.L271
 4640 3174 00000000 		nop
 4641              	
 4642 3178 3800C48F 		lw	$4,56($fp)
 4643 317c AB04000C 		jal	UnityTestResultsFailBegin
 4644 3180 00000000 		nop
GAS LISTING C:\Users\Piotrek\AppData\Local\Temp\cc9LOeNg.s 			page 84


 4645              	
 4646 3184 0000023C 		lui	$2,%hi(UnityStrPointless)
 4647 3188 D4004424 		addiu	$4,$2,%lo(UnityStrPointless)
 4648 318c 0000000C 		jal	UnityPrint
 4649 3190 00000000 		nop
 4650              	
 4651 3194 3400C48F 		lw	$4,52($fp)
 4652 3198 F104000C 		jal	UnityAddMsgIfSpecified
 4653 319c 00000000 		nop
 4654              	
 4655 31a0 01000224 		li	$2,1			# 0x1
 4656 31a4 200082AF 		sw	$2,%gp_rel(Unity+32)($28)
 4657 31a8 28008427 		addiu	$4,$28,%gp_rel(Unity+40)
 4658 31ac 01000524 		li	$5,1			# 0x1
 4659 31b0 0000000C 		jal	longjmp
 4660 31b4 00000000 		nop
 4661              	
 4662              	.L271:
 4663 31b8 2800C38F 		lw	$3,40($fp)
 4664 31bc 2C00C28F 		lw	$2,44($fp)
 4665 31c0 03006214 		bne	$3,$2,.L272
 4666 31c4 00000000 		nop
 4667              	
 4668 31c8 EC0C0008 		j	.L268
 4669 31cc 00000000 		nop
 4670              	
 4671              	.L272:
 4672 31d0 2800C48F 		lw	$4,40($fp)
 4673 31d4 2C00C58F 		lw	$5,44($fp)
 4674 31d8 3800C68F 		lw	$6,56($fp)
 4675 31dc 3400C78F 		lw	$7,52($fp)
 4676 31e0 AB05000C 		jal	UnityIsOneArrayNull
 4677 31e4 00000000 		nop
 4678              	
 4679 31e8 07004010 		beq	$2,$0,.L274
 4680 31ec 00000000 		nop
 4681              	
 4682 31f0 01000224 		li	$2,1			# 0x1
 4683 31f4 200082AF 		sw	$2,%gp_rel(Unity+32)($28)
 4684 31f8 28008427 		addiu	$4,$28,%gp_rel(Unity+40)
 4685 31fc 01000524 		li	$5,1			# 0x1
 4686 3200 0000000C 		jal	longjmp
 4687 3204 00000000 		nop
 4688              	
 4689              	.L274:
 4690 3208 3C00C38F 		lw	$3,60($fp)
 4691 320c 01000224 		li	$2,1			# 0x1
 4692 3210 03006210 		beq	$3,$2,.L275
 4693 3214 00000000 		nop
 4694              	
 4695 3218 2800C28F 		lw	$2,40($fp)
 4696 321c 1800C2AF 		sw	$2,24($fp)
 4697              	.L275:
 4698 3220 1400C28F 		lw	$2,20($fp)
 4699 3224 80100200 		sll	$2,$2,2
 4700 3228 2C00C38F 		lw	$3,44($fp)
 4701 322c 21106200 		addu	$2,$3,$2
GAS LISTING C:\Users\Piotrek\AppData\Local\Temp\cc9LOeNg.s 			page 85


 4702 3230 0000428C 		lw	$2,0($2)
 4703 3234 1C00C2AF 		sw	$2,28($fp)
 4704 3238 3C00C38F 		lw	$3,60($fp)
 4705 323c 01000224 		li	$2,1			# 0x1
 4706 3240 07006214 		bne	$3,$2,.L276
 4707 3244 00000000 		nop
 4708              	
 4709 3248 1400C28F 		lw	$2,20($fp)
 4710 324c 80100200 		sll	$2,$2,2
 4711 3250 2800C38F 		lw	$3,40($fp)
 4712 3254 21106200 		addu	$2,$3,$2
 4713 3258 0000428C 		lw	$2,0($2)
 4714 325c 1800C2AF 		sw	$2,24($fp)
 4715              	.L276:
 4716 3260 1800C28F 		lw	$2,24($fp)
 4717 3264 26004010 		beq	$2,$0,.L277
 4718 3268 00000000 		nop
 4719              	
 4720 326c 1C00C28F 		lw	$2,28($fp)
 4721 3270 23004010 		beq	$2,$0,.L277
 4722 3274 00000000 		nop
 4723              	
 4724 3278 1000C0AF 		sw	$0,16($fp)
 4725 327c B20C0008 		j	.L278
 4726 3280 00000000 		nop
 4727              	
 4728              	.L281:
 4729 3284 1800C38F 		lw	$3,24($fp)
 4730 3288 1000C28F 		lw	$2,16($fp)
 4731 328c 21106200 		addu	$2,$3,$2
 4732 3290 00004380 		lb	$3,0($2)
 4733 3294 1C00C48F 		lw	$4,28($fp)
 4734 3298 1000C28F 		lw	$2,16($fp)
 4735 329c 21108200 		addu	$2,$4,$2
 4736 32a0 00004280 		lb	$2,0($2)
 4737 32a4 05006210 		beq	$3,$2,.L279
 4738 32a8 00000000 		nop
 4739              	
 4740 32ac 01000224 		li	$2,1			# 0x1
 4741 32b0 200082AF 		sw	$2,%gp_rel(Unity+32)($28)
 4742 32b4 BE0C0008 		j	.L280
 4743 32b8 00000000 		nop
 4744              	
 4745              	.L279:
 4746 32bc 1000C28F 		lw	$2,16($fp)
 4747 32c0 01004224 		addiu	$2,$2,1
 4748 32c4 1000C2AF 		sw	$2,16($fp)
 4749              	.L278:
 4750 32c8 1800C38F 		lw	$3,24($fp)
 4751 32cc 1000C28F 		lw	$2,16($fp)
 4752 32d0 21106200 		addu	$2,$3,$2
 4753 32d4 00004280 		lb	$2,0($2)
 4754 32d8 EAFF4014 		bne	$2,$0,.L281
 4755 32dc 00000000 		nop
 4756              	
 4757 32e0 1C00C38F 		lw	$3,28($fp)
 4758 32e4 1000C28F 		lw	$2,16($fp)
GAS LISTING C:\Users\Piotrek\AppData\Local\Temp\cc9LOeNg.s 			page 86


 4759 32e8 21106200 		addu	$2,$3,$2
 4760 32ec 00004280 		lb	$2,0($2)
 4761 32f0 E4FF4014 		bne	$2,$0,.L281
 4762 32f4 00000000 		nop
 4763              	
 4764              	.L280:
 4765 32f8 C60C0008 		j	.L282
 4766 32fc 00000000 		nop
 4767              	
 4768              	.L277:
 4769 3300 1800C38F 		lw	$3,24($fp)
 4770 3304 1C00C28F 		lw	$2,28($fp)
 4771 3308 03006210 		beq	$3,$2,.L282
 4772 330c 00000000 		nop
 4773              	
 4774 3310 01000224 		li	$2,1			# 0x1
 4775 3314 200082AF 		sw	$2,%gp_rel(Unity+32)($28)
 4776              	.L282:
 4777 3318 2000828F 		lw	$2,%gp_rel(Unity+32)($28)
 4778 331c 1C004010 		beq	$2,$0,.L283
 4779 3320 00000000 		nop
 4780              	
 4781 3324 3800C48F 		lw	$4,56($fp)
 4782 3328 AB04000C 		jal	UnityTestResultsFailBegin
 4783 332c 00000000 		nop
 4784              	
 4785 3330 3000C28F 		lw	$2,48($fp)
 4786 3334 0200422C 		sltu	$2,$2,2
 4787 3338 08004014 		bne	$2,$0,.L284
 4788 333c 00000000 		nop
 4789              	
 4790 3340 0000023C 		lui	$2,%hi(UnityStrElement)
 4791 3344 90004424 		addiu	$4,$2,%lo(UnityStrElement)
 4792 3348 0000000C 		jal	UnityPrint
 4793 334c 00000000 		nop
 4794              	
 4795 3350 1400C48F 		lw	$4,20($fp)
 4796 3354 0000000C 		jal	UnityPrintNumberUnsigned
 4797 3358 00000000 		nop
 4798              	
 4799              	.L284:
 4800 335c 1800C48F 		lw	$4,24($fp)
 4801 3360 1C00C58F 		lw	$5,28($fp)
 4802 3364 2005000C 		jal	UnityPrintExpectedAndActualStrings
 4803 3368 00000000 		nop
 4804              	
 4805 336c 3400C48F 		lw	$4,52($fp)
 4806 3370 F104000C 		jal	UnityAddMsgIfSpecified
 4807 3374 00000000 		nop
 4808              	
 4809 3378 01000224 		li	$2,1			# 0x1
 4810 337c 200082AF 		sw	$2,%gp_rel(Unity+32)($28)
 4811 3380 28008427 		addiu	$4,$28,%gp_rel(Unity+40)
 4812 3384 01000524 		li	$5,1			# 0x1
 4813 3388 0000000C 		jal	longjmp
 4814 338c 00000000 		nop
 4815              	
GAS LISTING C:\Users\Piotrek\AppData\Local\Temp\cc9LOeNg.s 			page 87


 4816              	.L283:
 4817 3390 1400C28F 		lw	$2,20($fp)
 4818 3394 01004224 		addiu	$2,$2,1
 4819 3398 1400C2AF 		sw	$2,20($fp)
 4820 339c 1400C38F 		lw	$3,20($fp)
 4821 33a0 3000C28F 		lw	$2,48($fp)
 4822 33a4 2B106200 		sltu	$2,$3,$2
 4823 33a8 9DFF4014 		bne	$2,$0,.L275
 4824 33ac 00000000 		nop
 4825              	
 4826              	.L268:
 4827 33b0 21E8C003 		move	$sp,$fp
 4828 33b4 2400BF8F 		lw	$31,36($sp)
 4829 33b8 2000BE8F 		lw	$fp,32($sp)
 4830 33bc 2800BD27 		addiu	$sp,$sp,40
 4831 33c0 0800E003 		j	$31
 4832 33c4 00000000 		nop
 4833              	
 4834              		.set	macro
 4835              		.set	reorder
 4836              	# Begin mchp_output_function_epilogue
 4837              	# End mchp_output_function_epilogue
 4838              		.end	UnityAssertEqualStringArray
 4839              		.size	UnityAssertEqualStringArray, .-UnityAssertEqualStringArray
 4840              		.align	2
 4841              		.globl	UnityAssertEqualMemory
 4842              		.set	nomips16
 4843              		.set	nomicromips
 4844              		.ent	UnityAssertEqualMemory
 4845              		.type	UnityAssertEqualMemory, @function
 4846              	UnityAssertEqualMemory:
 4847              		.frame	$fp,40,$31		# vars= 16, regs= 2/0, args= 16, gp= 0
 4848              		.mask	0xc0000000,-4
 4849              		.fmask	0x00000000,0
 4850              		.set	noreorder
 4851              		.set	nomacro
 4852              	# End mchp_output_function_prologue
 4853 33c8 D8FFBD27 		addiu	$sp,$sp,-40
 4854 33cc 2400BFAF 		sw	$31,36($sp)
 4855 33d0 2000BEAF 		sw	$fp,32($sp)
 4856 33d4 21F0A003 		move	$fp,$sp
 4857 33d8 2800C4AF 		sw	$4,40($fp)
 4858 33dc 2C00C5AF 		sw	$5,44($fp)
 4859 33e0 3000C6AF 		sw	$6,48($fp)
 4860 33e4 3400C7AF 		sw	$7,52($fp)
 4861 33e8 2800C28F 		lw	$2,40($fp)
 4862 33ec 1000C2AF 		sw	$2,16($fp)
 4863 33f0 2C00C28F 		lw	$2,44($fp)
 4864 33f4 1400C2AF 		sw	$2,20($fp)
 4865 33f8 3400C28F 		lw	$2,52($fp)
 4866 33fc 1800C2AF 		sw	$2,24($fp)
 4867 3400 2000828F 		lw	$2,%gp_rel(Unity+32)($28)
 4868 3404 04004014 		bne	$2,$0,.L286
 4869 3408 00000000 		nop
 4870              	
 4871 340c 2400828F 		lw	$2,%gp_rel(Unity+36)($28)
 4872 3410 05004010 		beq	$2,$0,.L287
GAS LISTING C:\Users\Piotrek\AppData\Local\Temp\cc9LOeNg.s 			page 88


 4873 3414 00000000 		nop
 4874              	
 4875              	.L286:
 4876 3418 28008427 		addiu	$4,$28,%gp_rel(Unity+40)
 4877 341c 01000524 		li	$5,1			# 0x1
 4878 3420 0000000C 		jal	longjmp
 4879 3424 00000000 		nop
 4880              	
 4881              	.L287:
 4882 3428 1800C28F 		lw	$2,24($fp)
 4883 342c 04004010 		beq	$2,$0,.L288
 4884 3430 00000000 		nop
 4885              	
 4886 3434 3000C28F 		lw	$2,48($fp)
 4887 3438 11004014 		bne	$2,$0,.L289
 4888 343c 00000000 		nop
 4889              	
 4890              	.L288:
 4891 3440 3C00C48F 		lw	$4,60($fp)
 4892 3444 AB04000C 		jal	UnityTestResultsFailBegin
 4893 3448 00000000 		nop
 4894              	
 4895 344c 0000023C 		lui	$2,%hi(UnityStrPointless)
 4896 3450 D4004424 		addiu	$4,$2,%lo(UnityStrPointless)
 4897 3454 0000000C 		jal	UnityPrint
 4898 3458 00000000 		nop
 4899              	
 4900 345c 3800C48F 		lw	$4,56($fp)
 4901 3460 F104000C 		jal	UnityAddMsgIfSpecified
 4902 3464 00000000 		nop
 4903              	
 4904 3468 01000224 		li	$2,1			# 0x1
 4905 346c 200082AF 		sw	$2,%gp_rel(Unity+32)($28)
 4906 3470 28008427 		addiu	$4,$28,%gp_rel(Unity+40)
 4907 3474 01000524 		li	$5,1			# 0x1
 4908 3478 0000000C 		jal	longjmp
 4909 347c 00000000 		nop
 4910              	
 4911              	.L289:
 4912 3480 2800C38F 		lw	$3,40($fp)
 4913 3484 2C00C28F 		lw	$2,44($fp)
 4914 3488 03006214 		bne	$3,$2,.L290
 4915 348c 00000000 		nop
 4916              	
 4917 3490 930D0008 		j	.L285
 4918 3494 00000000 		nop
 4919              	
 4920              	.L290:
 4921 3498 2800C48F 		lw	$4,40($fp)
 4922 349c 2C00C58F 		lw	$5,44($fp)
 4923 34a0 3C00C68F 		lw	$6,60($fp)
 4924 34a4 3800C78F 		lw	$7,56($fp)
 4925 34a8 AB05000C 		jal	UnityIsOneArrayNull
 4926 34ac 00000000 		nop
 4927              	
 4928 34b0 07004010 		beq	$2,$0,.L292
 4929 34b4 00000000 		nop
GAS LISTING C:\Users\Piotrek\AppData\Local\Temp\cc9LOeNg.s 			page 89


 4930              	
 4931 34b8 01000224 		li	$2,1			# 0x1
 4932 34bc 200082AF 		sw	$2,%gp_rel(Unity+32)($28)
 4933 34c0 28008427 		addiu	$4,$28,%gp_rel(Unity+40)
 4934 34c4 01000524 		li	$5,1			# 0x1
 4935 34c8 0000000C 		jal	longjmp
 4936 34cc 00000000 		nop
 4937              	
 4938              	.L292:
 4939 34d0 8E0D0008 		j	.L293
 4940 34d4 00000000 		nop
 4941              	
 4942              	.L298:
 4943 34d8 3000C28F 		lw	$2,48($fp)
 4944 34dc 1C00C2AF 		sw	$2,28($fp)
 4945 34e0 840D0008 		j	.L294
 4946 34e4 00000000 		nop
 4947              	
 4948              	.L297:
 4949 34e8 1000C28F 		lw	$2,16($fp)
 4950 34ec 00004390 		lbu	$3,0($2)
 4951 34f0 1400C28F 		lw	$2,20($fp)
 4952 34f4 00004290 		lbu	$2,0($2)
 4953 34f8 3F006210 		beq	$3,$2,.L295
 4954 34fc 00000000 		nop
 4955              	
 4956 3500 3C00C48F 		lw	$4,60($fp)
 4957 3504 AB04000C 		jal	UnityTestResultsFailBegin
 4958 3508 00000000 		nop
 4959              	
 4960 350c 0000023C 		lui	$2,%hi(UnityStrMemory)
 4961 3510 A4004424 		addiu	$4,$2,%lo(UnityStrMemory)
 4962 3514 0000000C 		jal	UnityPrint
 4963 3518 00000000 		nop
 4964              	
 4965 351c 3400C28F 		lw	$2,52($fp)
 4966 3520 0200422C 		sltu	$2,$2,2
 4967 3524 0C004014 		bne	$2,$0,.L296
 4968 3528 00000000 		nop
 4969              	
 4970 352c 0000023C 		lui	$2,%hi(UnityStrElement)
 4971 3530 90004424 		addiu	$4,$2,%lo(UnityStrElement)
 4972 3534 0000000C 		jal	UnityPrint
 4973 3538 00000000 		nop
 4974              	
 4975 353c 3400C38F 		lw	$3,52($fp)
 4976 3540 1800C28F 		lw	$2,24($fp)
 4977 3544 23106200 		subu	$2,$3,$2
 4978 3548 FFFF4224 		addiu	$2,$2,-1
 4979 354c 21204000 		move	$4,$2
 4980 3550 0000000C 		jal	UnityPrintNumberUnsigned
 4981 3554 00000000 		nop
 4982              	
 4983              	.L296:
 4984 3558 0000023C 		lui	$2,%hi(UnityStrByte)
 4985 355c 9C004424 		addiu	$4,$2,%lo(UnityStrByte)
 4986 3560 0000000C 		jal	UnityPrint
GAS LISTING C:\Users\Piotrek\AppData\Local\Temp\cc9LOeNg.s 			page 90


 4987 3564 00000000 		nop
 4988              	
 4989 3568 3000C38F 		lw	$3,48($fp)
 4990 356c 1C00C28F 		lw	$2,28($fp)
 4991 3570 23106200 		subu	$2,$3,$2
 4992 3574 FFFF4224 		addiu	$2,$2,-1
 4993 3578 21204000 		move	$4,$2
 4994 357c 0000000C 		jal	UnityPrintNumberUnsigned
 4995 3580 00000000 		nop
 4996              	
 4997 3584 0000023C 		lui	$2,%hi(UnityStrExpected)
 4998 3588 28004424 		addiu	$4,$2,%lo(UnityStrExpected)
 4999 358c 0000000C 		jal	UnityPrint
 5000 3590 00000000 		nop
 5001              	
 5002 3594 1000C28F 		lw	$2,16($fp)
 5003 3598 00004290 		lbu	$2,0($2)
 5004 359c 21204000 		move	$4,$2
 5005 35a0 41000524 		li	$5,65			# 0x41
 5006 35a4 0000000C 		jal	UnityPrintNumberByStyle
 5007 35a8 00000000 		nop
 5008              	
 5009 35ac 0000023C 		lui	$2,%hi(UnityStrWas)
 5010 35b0 34004424 		addiu	$4,$2,%lo(UnityStrWas)
 5011 35b4 0000000C 		jal	UnityPrint
 5012 35b8 00000000 		nop
 5013              	
 5014 35bc 1400C28F 		lw	$2,20($fp)
 5015 35c0 00004290 		lbu	$2,0($2)
 5016 35c4 21204000 		move	$4,$2
 5017 35c8 41000524 		li	$5,65			# 0x41
 5018 35cc 0000000C 		jal	UnityPrintNumberByStyle
 5019 35d0 00000000 		nop
 5020              	
 5021 35d4 3800C48F 		lw	$4,56($fp)
 5022 35d8 F104000C 		jal	UnityAddMsgIfSpecified
 5023 35dc 00000000 		nop
 5024              	
 5025 35e0 01000224 		li	$2,1			# 0x1
 5026 35e4 200082AF 		sw	$2,%gp_rel(Unity+32)($28)
 5027 35e8 28008427 		addiu	$4,$28,%gp_rel(Unity+40)
 5028 35ec 01000524 		li	$5,1			# 0x1
 5029 35f0 0000000C 		jal	longjmp
 5030 35f4 00000000 		nop
 5031              	
 5032              	.L295:
 5033 35f8 1000C28F 		lw	$2,16($fp)
 5034 35fc 01004224 		addiu	$2,$2,1
 5035 3600 1000C2AF 		sw	$2,16($fp)
 5036 3604 1400C28F 		lw	$2,20($fp)
 5037 3608 01004224 		addiu	$2,$2,1
 5038 360c 1400C2AF 		sw	$2,20($fp)
 5039              	.L294:
 5040 3610 1C00C28F 		lw	$2,28($fp)
 5041 3614 FFFF4324 		addiu	$3,$2,-1
 5042 3618 1C00C3AF 		sw	$3,28($fp)
 5043 361c B2FF4014 		bne	$2,$0,.L297
GAS LISTING C:\Users\Piotrek\AppData\Local\Temp\cc9LOeNg.s 			page 91


 5044 3620 00000000 		nop
 5045              	
 5046 3624 4000C28F 		lw	$2,64($fp)
 5047 3628 03004014 		bne	$2,$0,.L293
 5048 362c 00000000 		nop
 5049              	
 5050 3630 2800C28F 		lw	$2,40($fp)
 5051 3634 1000C2AF 		sw	$2,16($fp)
 5052              	.L293:
 5053 3638 1800C28F 		lw	$2,24($fp)
 5054 363c FFFF4324 		addiu	$3,$2,-1
 5055 3640 1800C3AF 		sw	$3,24($fp)
 5056 3644 A4FF4014 		bne	$2,$0,.L298
 5057 3648 00000000 		nop
 5058              	
 5059              	.L285:
 5060 364c 21E8C003 		move	$sp,$fp
 5061 3650 2400BF8F 		lw	$31,36($sp)
 5062 3654 2000BE8F 		lw	$fp,32($sp)
 5063 3658 2800BD27 		addiu	$sp,$sp,40
 5064 365c 0800E003 		j	$31
 5065 3660 00000000 		nop
 5066              	
 5067              		.set	macro
 5068              		.set	reorder
 5069              	# Begin mchp_output_function_epilogue
 5070              	# End mchp_output_function_epilogue
 5071              		.end	UnityAssertEqualMemory
 5072              		.size	UnityAssertEqualMemory, .-UnityAssertEqualMemory
 5073              		.section	.sbss,bss
 5074              		.align	2
 5075              		.type	UnityQuickCompare, @object
 5076              		.size	UnityQuickCompare, 4
 5077              	UnityQuickCompare:
 5078 0000 00000000 		.space	4
 5079              		.section	.text,code
 5080              		.align	2
 5081              		.globl	UnityNumToPtr
 5082              		.set	nomips16
 5083              		.set	nomicromips
 5084              		.ent	UnityNumToPtr
 5085              		.type	UnityNumToPtr, @function
 5086              	UnityNumToPtr:
 5087              		.frame	$fp,8,$31		# vars= 0, regs= 1/0, args= 0, gp= 0
 5088              		.mask	0x40000000,-4
 5089              		.fmask	0x00000000,0
 5090              		.set	noreorder
 5091              		.set	nomacro
 5092              	# End mchp_output_function_prologue
 5093 3664 F8FFBD27 		addiu	$sp,$sp,-8
 5094 3668 0400BEAF 		sw	$fp,4($sp)
 5095 366c 21F0A003 		move	$fp,$sp
 5096 3670 0800C4AF 		sw	$4,8($fp)
 5097 3674 2110A000 		move	$2,$5
 5098 3678 0C00C2A3 		sb	$2,12($fp)
 5099 367c 0C00C293 		lbu	$2,12($fp)
 5100 3680 01000324 		li	$3,1			# 0x1
GAS LISTING C:\Users\Piotrek\AppData\Local\Temp\cc9LOeNg.s 			page 92


 5101 3684 06004310 		beq	$2,$3,.L301
 5102 3688 00000000 		nop
 5103              	
 5104 368c 02000324 		li	$3,2			# 0x2
 5105 3690 09004310 		beq	$2,$3,.L302
 5106 3694 00000000 		nop
 5107              	
 5108 3698 B40D0008 		j	.L304
 5109 369c 00000000 		nop
 5110              	
 5111              	.L301:
 5112 36a0 0800C28F 		lw	$2,8($fp)
 5113 36a4 2014027C 		seb	$2,$2
 5114 36a8 000082A3 		sb	$2,%gp_rel(UnityQuickCompare)($28)
 5115 36ac 00008227 		addiu	$2,$28,%gp_rel(UnityQuickCompare)
 5116 36b0 B70D0008 		j	.L303
 5117 36b4 00000000 		nop
 5118              	
 5119              	.L302:
 5120 36b8 0800C28F 		lw	$2,8($fp)
 5121 36bc 2016027C 		seh	$2,$2
 5122 36c0 000082A7 		sh	$2,%gp_rel(UnityQuickCompare)($28)
 5123 36c4 00008227 		addiu	$2,$28,%gp_rel(UnityQuickCompare)
 5124 36c8 B70D0008 		j	.L303
 5125 36cc 00000000 		nop
 5126              	
 5127              	.L304:
 5128 36d0 0800C28F 		lw	$2,8($fp)
 5129 36d4 000082AF 		sw	$2,%gp_rel(UnityQuickCompare)($28)
 5130 36d8 00008227 		addiu	$2,$28,%gp_rel(UnityQuickCompare)
 5131              	.L303:
 5132 36dc 21E8C003 		move	$sp,$fp
 5133 36e0 0400BE8F 		lw	$fp,4($sp)
 5134 36e4 0800BD27 		addiu	$sp,$sp,8
 5135 36e8 0800E003 		j	$31
 5136 36ec 00000000 		nop
 5137              	
 5138              		.set	macro
 5139              		.set	reorder
 5140              	# Begin mchp_output_function_epilogue
 5141              	# End mchp_output_function_epilogue
 5142              		.end	UnityNumToPtr
 5143              		.size	UnityNumToPtr, .-UnityNumToPtr
 5144              		.align	2
 5145              		.globl	UnityFloatToPtr
 5146              		.set	nomips16
 5147              		.set	nomicromips
 5148              		.ent	UnityFloatToPtr
 5149              		.type	UnityFloatToPtr, @function
 5150              	UnityFloatToPtr:
 5151              		.frame	$fp,8,$31		# vars= 0, regs= 1/0, args= 0, gp= 0
 5152              		.mask	0x40000000,-4
 5153              		.fmask	0x00000000,0
 5154              		.set	noreorder
 5155              		.set	nomacro
 5156              	# End mchp_output_function_prologue
 5157 36f0 F8FFBD27 		addiu	$sp,$sp,-8
GAS LISTING C:\Users\Piotrek\AppData\Local\Temp\cc9LOeNg.s 			page 93


 5158 36f4 0400BEAF 		sw	$fp,4($sp)
 5159 36f8 21F0A003 		move	$fp,$sp
 5160 36fc 0800CCE7 		swc1	$f12,8($fp)
 5161 3700 0800C28F 		lw	$2,8($fp)
 5162 3704 000082AF 		sw	$2,%gp_rel(UnityQuickCompare)($28)
 5163 3708 00008227 		addiu	$2,$28,%gp_rel(UnityQuickCompare)
 5164 370c 21E8C003 		move	$sp,$fp
 5165 3710 0400BE8F 		lw	$fp,4($sp)
 5166 3714 0800BD27 		addiu	$sp,$sp,8
 5167 3718 0800E003 		j	$31
 5168 371c 00000000 		nop
 5169              	
 5170              		.set	macro
 5171              		.set	reorder
 5172              	# Begin mchp_output_function_epilogue
 5173              	# End mchp_output_function_epilogue
 5174              		.end	UnityFloatToPtr
 5175              		.size	UnityFloatToPtr, .-UnityFloatToPtr
 5176              		.align	2
 5177              		.globl	UnityFail
 5178              		.set	nomips16
 5179              		.set	nomicromips
 5180              		.ent	UnityFail
 5181              		.type	UnityFail, @function
 5182              	UnityFail:
 5183              		.frame	$fp,24,$31		# vars= 0, regs= 2/0, args= 16, gp= 0
 5184              		.mask	0xc0000000,-4
 5185              		.fmask	0x00000000,0
 5186              		.set	noreorder
 5187              		.set	nomacro
 5188              	# End mchp_output_function_prologue
 5189 3720 E8FFBD27 		addiu	$sp,$sp,-24
 5190 3724 1400BFAF 		sw	$31,20($sp)
 5191 3728 1000BEAF 		sw	$fp,16($sp)
 5192 372c 21F0A003 		move	$fp,$sp
 5193 3730 1800C4AF 		sw	$4,24($fp)
 5194 3734 1C00C5AF 		sw	$5,28($fp)
 5195 3738 2000828F 		lw	$2,%gp_rel(Unity+32)($28)
 5196 373c 04004014 		bne	$2,$0,.L308
 5197 3740 00000000 		nop
 5198              	
 5199 3744 2400828F 		lw	$2,%gp_rel(Unity+36)($28)
 5200 3748 05004010 		beq	$2,$0,.L309
 5201 374c 00000000 		nop
 5202              	
 5203              	.L308:
 5204 3750 28008427 		addiu	$4,$28,%gp_rel(Unity+40)
 5205 3754 01000524 		li	$5,1			# 0x1
 5206 3758 0000000C 		jal	longjmp
 5207 375c 00000000 		nop
 5208              	
 5209              	.L309:
 5210 3760 0000828F 		lw	$2,%gp_rel(Unity)($28)
 5211 3764 21204000 		move	$4,$2
 5212 3768 1C00C58F 		lw	$5,28($fp)
 5213 376c 8204000C 		jal	UnityTestResultsBegin
 5214 3770 00000000 		nop
GAS LISTING C:\Users\Piotrek\AppData\Local\Temp\cc9LOeNg.s 			page 94


 5215              	
 5216 3774 0000023C 		lui	$2,%hi(UnityStrFail)
 5217 3778 00004424 		addiu	$4,$2,%lo(UnityStrFail)
 5218 377c 0000000C 		jal	UnityPrint
 5219 3780 00000000 		nop
 5220              	
 5221 3784 1800C28F 		lw	$2,24($fp)
 5222 3788 2F004010 		beq	$2,$0,.L310
 5223 378c 00000000 		nop
 5224              	
 5225 3790 0000828F 		lw	$2,%gp_rel(_libc_data)($28)
 5226 3794 0400428C 		lw	$2,4($2)
 5227 3798 3A000424 		li	$4,58			# 0x3a
 5228 379c 21284000 		move	$5,$2
 5229 37a0 0000000C 		jal	fputc
 5230 37a4 00000000 		nop
 5231              	
 5232 37a8 0800828F 		lw	$2,%gp_rel(Unity+8)($28)
 5233 37ac 18004010 		beq	$2,$0,.L311
 5234 37b0 00000000 		nop
 5235              	
 5236 37b4 0000023C 		lui	$2,%hi(UnityStrDetail1Name)
 5237 37b8 50024424 		addiu	$4,$2,%lo(UnityStrDetail1Name)
 5238 37bc 0000000C 		jal	UnityPrint
 5239 37c0 00000000 		nop
 5240              	
 5241 37c4 0800828F 		lw	$2,%gp_rel(Unity+8)($28)
 5242 37c8 21204000 		move	$4,$2
 5243 37cc 0000000C 		jal	UnityPrint
 5244 37d0 00000000 		nop
 5245              	
 5246 37d4 0C00828F 		lw	$2,%gp_rel(Unity+12)($28)
 5247 37d8 09004010 		beq	$2,$0,.L312
 5248 37dc 00000000 		nop
 5249              	
 5250 37e0 0000023C 		lui	$2,%hi(UnityStrDetail2Name)
 5251 37e4 5C024424 		addiu	$4,$2,%lo(UnityStrDetail2Name)
 5252 37e8 0000000C 		jal	UnityPrint
 5253 37ec 00000000 		nop
 5254              	
 5255 37f0 0C00828F 		lw	$2,%gp_rel(Unity+12)($28)
 5256 37f4 21204000 		move	$4,$2
 5257 37f8 0000000C 		jal	UnityPrint
 5258 37fc 00000000 		nop
 5259              	
 5260              	.L312:
 5261 3800 0000023C 		lui	$2,%hi(UnityStrSpacer)
 5262 3804 24004424 		addiu	$4,$2,%lo(UnityStrSpacer)
 5263 3808 0000000C 		jal	UnityPrint
 5264 380c 00000000 		nop
 5265              	
 5266              	.L311:
 5267 3810 1800C28F 		lw	$2,24($fp)
 5268 3814 00004380 		lb	$3,0($2)
 5269 3818 20000224 		li	$2,32			# 0x20
 5270 381c 07006210 		beq	$3,$2,.L313
 5271 3820 00000000 		nop
GAS LISTING C:\Users\Piotrek\AppData\Local\Temp\cc9LOeNg.s 			page 95


 5272              	
 5273 3824 0000828F 		lw	$2,%gp_rel(_libc_data)($28)
 5274 3828 0400428C 		lw	$2,4($2)
 5275 382c 20000424 		li	$4,32			# 0x20
 5276 3830 21284000 		move	$5,$2
 5277 3834 0000000C 		jal	fputc
 5278 3838 00000000 		nop
 5279              	
 5280              	.L313:
 5281 383c 1800C48F 		lw	$4,24($fp)
 5282 3840 0000000C 		jal	UnityPrint
 5283 3844 00000000 		nop
 5284              	
 5285              	.L310:
 5286 3848 01000224 		li	$2,1			# 0x1
 5287 384c 200082AF 		sw	$2,%gp_rel(Unity+32)($28)
 5288 3850 28008427 		addiu	$4,$28,%gp_rel(Unity+40)
 5289 3854 01000524 		li	$5,1			# 0x1
 5290 3858 0000000C 		jal	longjmp
 5291 385c 00000000 		nop
 5292              	
 5293              		.set	macro
 5294              		.set	reorder
 5295              	# Begin mchp_output_function_epilogue
 5296              	# End mchp_output_function_epilogue
 5297              		.end	UnityFail
 5298              		.size	UnityFail, .-UnityFail
 5299              		.align	2
 5300              		.globl	UnityIgnore
 5301              		.set	nomips16
 5302              		.set	nomicromips
 5303              		.ent	UnityIgnore
 5304              		.type	UnityIgnore, @function
 5305              	UnityIgnore:
 5306              		.frame	$fp,24,$31		# vars= 0, regs= 2/0, args= 16, gp= 0
 5307              		.mask	0xc0000000,-4
 5308              		.fmask	0x00000000,0
 5309              		.set	noreorder
 5310              		.set	nomacro
 5311              	# End mchp_output_function_prologue
 5312 3860 E8FFBD27 		addiu	$sp,$sp,-24
 5313 3864 1400BFAF 		sw	$31,20($sp)
 5314 3868 1000BEAF 		sw	$fp,16($sp)
 5315 386c 21F0A003 		move	$fp,$sp
 5316 3870 1800C4AF 		sw	$4,24($fp)
 5317 3874 1C00C5AF 		sw	$5,28($fp)
 5318 3878 2000828F 		lw	$2,%gp_rel(Unity+32)($28)
 5319 387c 04004014 		bne	$2,$0,.L315
 5320 3880 00000000 		nop
 5321              	
 5322 3884 2400828F 		lw	$2,%gp_rel(Unity+36)($28)
 5323 3888 05004010 		beq	$2,$0,.L316
 5324 388c 00000000 		nop
 5325              	
 5326              	.L315:
 5327 3890 28008427 		addiu	$4,$28,%gp_rel(Unity+40)
 5328 3894 01000524 		li	$5,1			# 0x1
GAS LISTING C:\Users\Piotrek\AppData\Local\Temp\cc9LOeNg.s 			page 96


 5329 3898 0000000C 		jal	longjmp
 5330 389c 00000000 		nop
 5331              	
 5332              	.L316:
 5333 38a0 0000828F 		lw	$2,%gp_rel(Unity)($28)
 5334 38a4 21204000 		move	$4,$2
 5335 38a8 1C00C58F 		lw	$5,28($fp)
 5336 38ac 8204000C 		jal	UnityTestResultsBegin
 5337 38b0 00000000 		nop
 5338              	
 5339 38b4 0000023C 		lui	$2,%hi(UnityStrIgnore)
 5340 38b8 00004424 		addiu	$4,$2,%lo(UnityStrIgnore)
 5341 38bc 0000000C 		jal	UnityPrint
 5342 38c0 00000000 		nop
 5343              	
 5344 38c4 1800C28F 		lw	$2,24($fp)
 5345 38c8 10004010 		beq	$2,$0,.L317
 5346 38cc 00000000 		nop
 5347              	
 5348 38d0 0000828F 		lw	$2,%gp_rel(_libc_data)($28)
 5349 38d4 0400428C 		lw	$2,4($2)
 5350 38d8 3A000424 		li	$4,58			# 0x3a
 5351 38dc 21284000 		move	$5,$2
 5352 38e0 0000000C 		jal	fputc
 5353 38e4 00000000 		nop
 5354              	
 5355 38e8 0000828F 		lw	$2,%gp_rel(_libc_data)($28)
 5356 38ec 0400428C 		lw	$2,4($2)
 5357 38f0 20000424 		li	$4,32			# 0x20
 5358 38f4 21284000 		move	$5,$2
 5359 38f8 0000000C 		jal	fputc
 5360 38fc 00000000 		nop
 5361              	
 5362 3900 1800C48F 		lw	$4,24($fp)
 5363 3904 0000000C 		jal	UnityPrint
 5364 3908 00000000 		nop
 5365              	
 5366              	.L317:
 5367 390c 01000224 		li	$2,1			# 0x1
 5368 3910 240082AF 		sw	$2,%gp_rel(Unity+36)($28)
 5369 3914 28008427 		addiu	$4,$28,%gp_rel(Unity+40)
 5370 3918 01000524 		li	$5,1			# 0x1
 5371 391c 0000000C 		jal	longjmp
 5372 3920 00000000 		nop
 5373              	
 5374              		.set	macro
 5375              		.set	reorder
 5376              	# Begin mchp_output_function_epilogue
 5377              	# End mchp_output_function_epilogue
 5378              		.end	UnityIgnore
 5379              		.size	UnityIgnore, .-UnityIgnore
 5380              		.section	.rodata,code
 5381              		.align	2
 5382              	.LC9:
 5383 0274 494E464F 		.ascii	"INFO\000"
 5383      00
 5384              		.section	.text,code
GAS LISTING C:\Users\Piotrek\AppData\Local\Temp\cc9LOeNg.s 			page 97


 5385              		.align	2
 5386              		.globl	UnityMessage
 5387              		.set	nomips16
 5388              		.set	nomicromips
 5389              		.ent	UnityMessage
 5390              		.type	UnityMessage, @function
 5391              	UnityMessage:
 5392              		.frame	$fp,24,$31		# vars= 0, regs= 2/0, args= 16, gp= 0
 5393              		.mask	0xc0000000,-4
 5394              		.fmask	0x00000000,0
 5395              		.set	noreorder
 5396              		.set	nomacro
 5397              	# End mchp_output_function_prologue
 5398 3924 E8FFBD27 		addiu	$sp,$sp,-24
 5399 3928 1400BFAF 		sw	$31,20($sp)
 5400 392c 1000BEAF 		sw	$fp,16($sp)
 5401 3930 21F0A003 		move	$fp,$sp
 5402 3934 1800C4AF 		sw	$4,24($fp)
 5403 3938 1C00C5AF 		sw	$5,28($fp)
 5404 393c 0000828F 		lw	$2,%gp_rel(Unity)($28)
 5405 3940 21204000 		move	$4,$2
 5406 3944 1C00C58F 		lw	$5,28($fp)
 5407 3948 8204000C 		jal	UnityTestResultsBegin
 5408 394c 00000000 		nop
 5409              	
 5410 3950 0000023C 		lui	$2,%hi(.LC9)
 5411 3954 74024424 		addiu	$4,$2,%lo(.LC9)
 5412 3958 0000000C 		jal	UnityPrint
 5413 395c 00000000 		nop
 5414              	
 5415 3960 1800C28F 		lw	$2,24($fp)
 5416 3964 10004010 		beq	$2,$0,.L319
 5417 3968 00000000 		nop
 5418              	
 5419 396c 0000828F 		lw	$2,%gp_rel(_libc_data)($28)
 5420 3970 0400428C 		lw	$2,4($2)
 5421 3974 3A000424 		li	$4,58			# 0x3a
 5422 3978 21284000 		move	$5,$2
 5423 397c 0000000C 		jal	fputc
 5424 3980 00000000 		nop
 5425              	
 5426 3984 0000828F 		lw	$2,%gp_rel(_libc_data)($28)
 5427 3988 0400428C 		lw	$2,4($2)
 5428 398c 20000424 		li	$4,32			# 0x20
 5429 3990 21284000 		move	$5,$2
 5430 3994 0000000C 		jal	fputc
 5431 3998 00000000 		nop
 5432              	
 5433 399c 1800C48F 		lw	$4,24($fp)
 5434 39a0 0000000C 		jal	UnityPrint
 5435 39a4 00000000 		nop
 5436              	
 5437              	.L319:
 5438 39a8 0000828F 		lw	$2,%gp_rel(_libc_data)($28)
 5439 39ac 0400428C 		lw	$2,4($2)
 5440 39b0 0A000424 		li	$4,10			# 0xa
 5441 39b4 21284000 		move	$5,$2
GAS LISTING C:\Users\Piotrek\AppData\Local\Temp\cc9LOeNg.s 			page 98


 5442 39b8 0000000C 		jal	fputc
 5443 39bc 00000000 		nop
 5444              	
 5445 39c0 21E8C003 		move	$sp,$fp
 5446 39c4 1400BF8F 		lw	$31,20($sp)
 5447 39c8 1000BE8F 		lw	$fp,16($sp)
 5448 39cc 1800BD27 		addiu	$sp,$sp,24
 5449 39d0 0800E003 		j	$31
 5450 39d4 00000000 		nop
 5451              	
 5452              		.set	macro
 5453              		.set	reorder
 5454              	# Begin mchp_output_function_epilogue
 5455              	# End mchp_output_function_epilogue
 5456              		.end	UnityMessage
 5457              		.size	UnityMessage, .-UnityMessage
 5458              		.align	2
 5459              		.globl	UnityDefaultTestRun
 5460              		.set	nomips16
 5461              		.set	nomicromips
 5462              		.ent	UnityDefaultTestRun
 5463              		.type	UnityDefaultTestRun, @function
 5464              	UnityDefaultTestRun:
 5465              		.frame	$fp,24,$31		# vars= 0, regs= 2/0, args= 16, gp= 0
 5466              		.mask	0xc0000000,-4
 5467              		.fmask	0x00000000,0
 5468              		.set	noreorder
 5469              		.set	nomacro
 5470              	# End mchp_output_function_prologue
 5471 39d8 E8FFBD27 		addiu	$sp,$sp,-24
 5472 39dc 1400BFAF 		sw	$31,20($sp)
 5473 39e0 1000BEAF 		sw	$fp,16($sp)
 5474 39e4 21F0A003 		move	$fp,$sp
 5475 39e8 1800C4AF 		sw	$4,24($fp)
 5476 39ec 1C00C5AF 		sw	$5,28($fp)
 5477 39f0 2000C6AF 		sw	$6,32($fp)
 5478 39f4 1C00C28F 		lw	$2,28($fp)
 5479 39f8 040082AF 		sw	$2,%gp_rel(Unity+4)($28)
 5480 39fc 2000C28F 		lw	$2,32($fp)
 5481 3a00 100082AF 		sw	$2,%gp_rel(Unity+16)($28)
 5482 3a04 1400828F 		lw	$2,%gp_rel(Unity+20)($28)
 5483 3a08 01004224 		addiu	$2,$2,1
 5484 3a0c 140082AF 		sw	$2,%gp_rel(Unity+20)($28)
 5485 3a10 080080AF 		sw	$0,%gp_rel(Unity+8)($28)
 5486 3a14 0C0080AF 		sw	$0,%gp_rel(Unity+12)($28)
 5487 3a18 28008427 		addiu	$4,$28,%gp_rel(Unity+40)
 5488 3a1c 0000000C 		jal	setjmp
 5489 3a20 00000000 		nop
 5490              	
 5491 3a24 06004014 		bne	$2,$0,.L321
 5492 3a28 00000000 		nop
 5493              	
 5494 3a2c 0000000C 		jal	setUp
 5495 3a30 00000000 		nop
 5496              	
 5497 3a34 1800C28F 		lw	$2,24($fp)
 5498 3a38 09F84000 		jalr	$2
GAS LISTING C:\Users\Piotrek\AppData\Local\Temp\cc9LOeNg.s 			page 99


 5499 3a3c 00000000 		nop
 5500              	
 5501              	.L321:
 5502 3a40 28008427 		addiu	$4,$28,%gp_rel(Unity+40)
 5503 3a44 0000000C 		jal	setjmp
 5504 3a48 00000000 		nop
 5505              	
 5506 3a4c 03004014 		bne	$2,$0,.L322
 5507 3a50 00000000 		nop
 5508              	
 5509 3a54 0000000C 		jal	tearDown
 5510 3a58 00000000 		nop
 5511              	
 5512              	.L322:
 5513 3a5c 0000000C 		jal	UnityConcludeTest
 5514 3a60 00000000 		nop
 5515              	
 5516 3a64 21E8C003 		move	$sp,$fp
 5517 3a68 1400BF8F 		lw	$31,20($sp)
 5518 3a6c 1000BE8F 		lw	$fp,16($sp)
 5519 3a70 1800BD27 		addiu	$sp,$sp,24
 5520 3a74 0800E003 		j	$31
 5521 3a78 00000000 		nop
 5522              	
 5523              		.set	macro
 5524              		.set	reorder
 5525              	# Begin mchp_output_function_epilogue
 5526              	# End mchp_output_function_epilogue
 5527              		.end	UnityDefaultTestRun
 5528              		.size	UnityDefaultTestRun, .-UnityDefaultTestRun
 5529              		.align	2
 5530              		.globl	UnitySetTestFile
 5531              		.set	nomips16
 5532              		.set	nomicromips
 5533              		.ent	UnitySetTestFile
 5534              		.type	UnitySetTestFile, @function
 5535              	UnitySetTestFile:
 5536              		.frame	$fp,8,$31		# vars= 0, regs= 1/0, args= 0, gp= 0
 5537              		.mask	0x40000000,-4
 5538              		.fmask	0x00000000,0
 5539              		.set	noreorder
 5540              		.set	nomacro
 5541              	# End mchp_output_function_prologue
 5542 3a7c F8FFBD27 		addiu	$sp,$sp,-8
 5543 3a80 0400BEAF 		sw	$fp,4($sp)
 5544 3a84 21F0A003 		move	$fp,$sp
 5545 3a88 0800C4AF 		sw	$4,8($fp)
 5546 3a8c 0800C28F 		lw	$2,8($fp)
 5547 3a90 000082AF 		sw	$2,%gp_rel(Unity)($28)
 5548 3a94 21E8C003 		move	$sp,$fp
 5549 3a98 0400BE8F 		lw	$fp,4($sp)
 5550 3a9c 0800BD27 		addiu	$sp,$sp,8
 5551 3aa0 0800E003 		j	$31
 5552 3aa4 00000000 		nop
 5553              	
 5554              		.set	macro
 5555              		.set	reorder
GAS LISTING C:\Users\Piotrek\AppData\Local\Temp\cc9LOeNg.s 			page 100


 5556              	# Begin mchp_output_function_epilogue
 5557              	# End mchp_output_function_epilogue
 5558              		.end	UnitySetTestFile
 5559              		.size	UnitySetTestFile, .-UnitySetTestFile
 5560              		.align	2
 5561              		.globl	UnityBegin
 5562              		.set	nomips16
 5563              		.set	nomicromips
 5564              		.ent	UnityBegin
 5565              		.type	UnityBegin, @function
 5566              	UnityBegin:
 5567              		.frame	$fp,8,$31		# vars= 0, regs= 1/0, args= 0, gp= 0
 5568              		.mask	0x40000000,-4
 5569              		.fmask	0x00000000,0
 5570              		.set	noreorder
 5571              		.set	nomacro
 5572              	# End mchp_output_function_prologue
 5573 3aa8 F8FFBD27 		addiu	$sp,$sp,-8
 5574 3aac 0400BEAF 		sw	$fp,4($sp)
 5575 3ab0 21F0A003 		move	$fp,$sp
 5576 3ab4 0800C4AF 		sw	$4,8($fp)
 5577 3ab8 0800C28F 		lw	$2,8($fp)
 5578 3abc 000082AF 		sw	$2,%gp_rel(Unity)($28)
 5579 3ac0 040080AF 		sw	$0,%gp_rel(Unity+4)($28)
 5580 3ac4 100080AF 		sw	$0,%gp_rel(Unity+16)($28)
 5581 3ac8 140080AF 		sw	$0,%gp_rel(Unity+20)($28)
 5582 3acc 180080AF 		sw	$0,%gp_rel(Unity+24)($28)
 5583 3ad0 1C0080AF 		sw	$0,%gp_rel(Unity+28)($28)
 5584 3ad4 200080AF 		sw	$0,%gp_rel(Unity+32)($28)
 5585 3ad8 240080AF 		sw	$0,%gp_rel(Unity+36)($28)
 5586 3adc 080080AF 		sw	$0,%gp_rel(Unity+8)($28)
 5587 3ae0 0C0080AF 		sw	$0,%gp_rel(Unity+12)($28)
 5588 3ae4 21E8C003 		move	$sp,$fp
 5589 3ae8 0400BE8F 		lw	$fp,4($sp)
 5590 3aec 0800BD27 		addiu	$sp,$sp,8
 5591 3af0 0800E003 		j	$31
 5592 3af4 00000000 		nop
 5593              	
 5594              		.set	macro
 5595              		.set	reorder
 5596              	# Begin mchp_output_function_epilogue
 5597              	# End mchp_output_function_epilogue
 5598              		.end	UnityBegin
 5599              		.size	UnityBegin, .-UnityBegin
 5600              		.align	2
 5601              		.globl	UnityEnd
 5602              		.set	nomips16
 5603              		.set	nomicromips
 5604              		.ent	UnityEnd
 5605              		.type	UnityEnd, @function
 5606              	UnityEnd:
 5607              		.frame	$fp,24,$31		# vars= 0, regs= 2/0, args= 16, gp= 0
 5608              		.mask	0xc0000000,-4
 5609              		.fmask	0x00000000,0
 5610              		.set	noreorder
 5611              		.set	nomacro
 5612              	# End mchp_output_function_prologue
GAS LISTING C:\Users\Piotrek\AppData\Local\Temp\cc9LOeNg.s 			page 101


 5613 3af8 E8FFBD27 		addiu	$sp,$sp,-24
 5614 3afc 1400BFAF 		sw	$31,20($sp)
 5615 3b00 1000BEAF 		sw	$fp,16($sp)
 5616 3b04 21F0A003 		move	$fp,$sp
 5617 3b08 0000828F 		lw	$2,%gp_rel(_libc_data)($28)
 5618 3b0c 0400428C 		lw	$2,4($2)
 5619 3b10 0A000424 		li	$4,10			# 0xa
 5620 3b14 21284000 		move	$5,$2
 5621 3b18 0000000C 		jal	fputc
 5622 3b1c 00000000 		nop
 5623              	
 5624 3b20 0000023C 		lui	$2,%hi(UnityStrBreaker)
 5625 3b24 18024424 		addiu	$4,$2,%lo(UnityStrBreaker)
 5626 3b28 0000000C 		jal	UnityPrint
 5627 3b2c 00000000 		nop
 5628              	
 5629 3b30 0000828F 		lw	$2,%gp_rel(_libc_data)($28)
 5630 3b34 0400428C 		lw	$2,4($2)
 5631 3b38 0A000424 		li	$4,10			# 0xa
 5632 3b3c 21284000 		move	$5,$2
 5633 3b40 0000000C 		jal	fputc
 5634 3b44 00000000 		nop
 5635              	
 5636 3b48 1400828F 		lw	$2,%gp_rel(Unity+20)($28)
 5637 3b4c 21204000 		move	$4,$2
 5638 3b50 0000000C 		jal	UnityPrintNumber
 5639 3b54 00000000 		nop
 5640              	
 5641 3b58 0000023C 		lui	$2,%hi(UnityStrResultsTests)
 5642 3b5c 30024424 		addiu	$4,$2,%lo(UnityStrResultsTests)
 5643 3b60 0000000C 		jal	UnityPrint
 5644 3b64 00000000 		nop
 5645              	
 5646 3b68 1800828F 		lw	$2,%gp_rel(Unity+24)($28)
 5647 3b6c 21204000 		move	$4,$2
 5648 3b70 0000000C 		jal	UnityPrintNumber
 5649 3b74 00000000 		nop
 5650              	
 5651 3b78 0000023C 		lui	$2,%hi(UnityStrResultsFailures)
 5652 3b7c 38024424 		addiu	$4,$2,%lo(UnityStrResultsFailures)
 5653 3b80 0000000C 		jal	UnityPrint
 5654 3b84 00000000 		nop
 5655              	
 5656 3b88 1C00828F 		lw	$2,%gp_rel(Unity+28)($28)
 5657 3b8c 21204000 		move	$4,$2
 5658 3b90 0000000C 		jal	UnityPrintNumber
 5659 3b94 00000000 		nop
 5660              	
 5661 3b98 0000023C 		lui	$2,%hi(UnityStrResultsIgnored)
 5662 3b9c 44024424 		addiu	$4,$2,%lo(UnityStrResultsIgnored)
 5663 3ba0 0000000C 		jal	UnityPrint
 5664 3ba4 00000000 		nop
 5665              	
 5666 3ba8 0000828F 		lw	$2,%gp_rel(_libc_data)($28)
 5667 3bac 0400428C 		lw	$2,4($2)
 5668 3bb0 0A000424 		li	$4,10			# 0xa
 5669 3bb4 21284000 		move	$5,$2
GAS LISTING C:\Users\Piotrek\AppData\Local\Temp\cc9LOeNg.s 			page 102


 5670 3bb8 0000000C 		jal	fputc
 5671 3bbc 00000000 		nop
 5672              	
 5673 3bc0 1800828F 		lw	$2,%gp_rel(Unity+24)($28)
 5674 3bc4 07004014 		bne	$2,$0,.L326
 5675 3bc8 00000000 		nop
 5676              	
 5677 3bcc 0000023C 		lui	$2,%hi(UnityStrOk)
 5678 3bd0 00004424 		addiu	$4,$2,%lo(UnityStrOk)
 5679 3bd4 0000000C 		jal	UnityPrint
 5680 3bd8 00000000 		nop
 5681              	
 5682 3bdc FD0E0008 		j	.L327
 5683 3be0 00000000 		nop
 5684              	
 5685              	.L326:
 5686 3be4 0000023C 		lui	$2,%hi(UnityStrFail)
 5687 3be8 00004424 		addiu	$4,$2,%lo(UnityStrFail)
 5688 3bec 0000000C 		jal	UnityPrint
 5689 3bf0 00000000 		nop
 5690              	
 5691              	.L327:
 5692 3bf4 0000828F 		lw	$2,%gp_rel(_libc_data)($28)
 5693 3bf8 0400428C 		lw	$2,4($2)
 5694 3bfc 0A000424 		li	$4,10			# 0xa
 5695 3c00 21284000 		move	$5,$2
 5696 3c04 0000000C 		jal	fputc
 5697 3c08 00000000 		nop
 5698              	
 5699 3c0c 0000000C 		jal	UnityHelperDeadLoop
 5700 3c10 00000000 		nop
 5701              	
 5702 3c14 1800828F 		lw	$2,%gp_rel(Unity+24)($28)
 5703 3c18 21E8C003 		move	$sp,$fp
 5704 3c1c 1400BF8F 		lw	$31,20($sp)
 5705 3c20 1000BE8F 		lw	$fp,16($sp)
 5706 3c24 1800BD27 		addiu	$sp,$sp,24
 5707 3c28 0800E003 		j	$31
 5708 3c2c 00000000 		nop
 5709              	
 5710              		.set	macro
 5711              		.set	reorder
 5712              	# Begin mchp_output_function_epilogue
 5713              	# End mchp_output_function_epilogue
 5714              		.end	UnityEnd
 5715              		.size	UnityEnd, .-UnityEnd
 5716              		.section	.rodata,code
 5717 0279 000000   		.align	2
 5718              		.type	max_scaled.3141, @object
 5719              		.size	max_scaled.3141, 4
 5720              	max_scaled.3141:
 5721 027c 80969800 		.word	10000000
 5722              		.align	2
 5723              		.type	min_scaled.3140, @object
 5724              		.size	min_scaled.3140, 4
 5725              	min_scaled.3140:
 5726 0280 40420F00 		.word	1000000
GAS LISTING C:\Users\Piotrek\AppData\Local\Temp\cc9LOeNg.s 			page 103


 5727              		.align	2
 5728              		.type	sig_digits.3139, @object
 5729              		.size	sig_digits.3139, 4
 5730              	sig_digits.3139:
 5731 0284 07000000 		.word	7
 5732              		.align	3
 5733              	.LC2:
 5734 0288 FFFFFFFF 		.word	-1
 5735 028c FFFFEF7F 		.word	2146435071
 5736              		.align	2
 5737              	.LC4:
 5738 0290 0000803F 		.word	1065353216
 5739              		.align	2
 5740              	.LC5:
 5741 0294 F9021550 		.word	1343554297
 5742              		.align	2
 5743              	.LC6:
 5744 0298 00002041 		.word	1092616192
 5745              		.align	2
 5746              	.LC7:
 5747 029c 0000003F 		.word	1056964608
 5748              		.align	2
 5749              	.LC8:
 5750 02a0 ACC52737 		.word	925353388
 5751              		.ident	"GCC: (Microchip Technology) 4.8.3 MPLAB XC32 Compiler v2.50"
 5752              	# Begin MCHP vector dispatch table
 5753              	# End MCHP vector dispatch table
 5754 02a4 00000000 	# Microchip Technology PIC32 MCU configuration words
GAS LISTING C:\Users\Piotrek\AppData\Local\Temp\cc9LOeNg.s 			page 104


DEFINED SYMBOLS
                            *ABS*:00000000 unity.c
                            *COM*:000000e8 Unity
C:\Users\Piotrek\AppData\Local\Temp\cc9LOeNg.s:12     .rodata:00000000 UnityStrOk
C:\Users\Piotrek\AppData\Local\Temp\cc9LOeNg.s:18     .rodata:00000004 UnityStrPass
C:\Users\Piotrek\AppData\Local\Temp\cc9LOeNg.s:24     .rodata:0000000c UnityStrFail
C:\Users\Piotrek\AppData\Local\Temp\cc9LOeNg.s:30     .rodata:00000014 UnityStrIgnore
C:\Users\Piotrek\AppData\Local\Temp\cc9LOeNg.s:35     .rodata:0000001c UnityStrNull
C:\Users\Piotrek\AppData\Local\Temp\cc9LOeNg.s:40     .rodata:00000024 UnityStrSpacer
C:\Users\Piotrek\AppData\Local\Temp\cc9LOeNg.s:45     .rodata:00000028 UnityStrExpected
C:\Users\Piotrek\AppData\Local\Temp\cc9LOeNg.s:50     .rodata:00000034 UnityStrWas
C:\Users\Piotrek\AppData\Local\Temp\cc9LOeNg.s:55     .rodata:0000003c UnityStrGt
C:\Users\Piotrek\AppData\Local\Temp\cc9LOeNg.s:60     .rodata:00000054 UnityStrLt
C:\Users\Piotrek\AppData\Local\Temp\cc9LOeNg.s:65     .rodata:00000068 UnityStrOrEqual
C:\Users\Piotrek\AppData\Local\Temp\cc9LOeNg.s:70     .rodata:00000078 UnityStrNotEqual
C:\Users\Piotrek\AppData\Local\Temp\cc9LOeNg.s:75     .rodata:00000090 UnityStrElement
C:\Users\Piotrek\AppData\Local\Temp\cc9LOeNg.s:80     .rodata:0000009c UnityStrByte
C:\Users\Piotrek\AppData\Local\Temp\cc9LOeNg.s:85     .rodata:000000a4 UnityStrMemory
C:\Users\Piotrek\AppData\Local\Temp\cc9LOeNg.s:90     .rodata:000000b8 UnityStrDelta
C:\Users\Piotrek\AppData\Local\Temp\cc9LOeNg.s:95     .rodata:000000d4 UnityStrPointless
C:\Users\Piotrek\AppData\Local\Temp\cc9LOeNg.s:100    .rodata:0000010c UnityStrNullPointerForExpected
C:\Users\Piotrek\AppData\Local\Temp\cc9LOeNg.s:105    .rodata:0000012c UnityStrNullPointerForActual
C:\Users\Piotrek\AppData\Local\Temp\cc9LOeNg.s:110    .rodata:00000148 UnityStrNot
C:\Users\Piotrek\AppData\Local\Temp\cc9LOeNg.s:115    .rodata:00000150 UnityStrInf
C:\Users\Piotrek\AppData\Local\Temp\cc9LOeNg.s:120    .rodata:0000015c UnityStrNegInf
C:\Users\Piotrek\AppData\Local\Temp\cc9LOeNg.s:125    .rodata:00000170 UnityStrNaN
C:\Users\Piotrek\AppData\Local\Temp\cc9LOeNg.s:130    .rodata:00000174 UnityStrDet
C:\Users\Piotrek\AppData\Local\Temp\cc9LOeNg.s:135    .rodata:00000180 UnityStrInvalidFloatTrait
C:\Users\Piotrek\AppData\Local\Temp\cc9LOeNg.s:141    .rodata:00000194 UnityStrErrShorthand
C:\Users\Piotrek\AppData\Local\Temp\cc9LOeNg.s:147    .rodata:000001b8 UnityStrErrFloat
C:\Users\Piotrek\AppData\Local\Temp\cc9LOeNg.s:153    .rodata:000001d8 UnityStrErrDouble
C:\Users\Piotrek\AppData\Local\Temp\cc9LOeNg.s:159    .rodata:000001f8 UnityStrErr64
C:\Users\Piotrek\AppData\Local\Temp\cc9LOeNg.s:164    .rodata:00000218 UnityStrBreaker
C:\Users\Piotrek\AppData\Local\Temp\cc9LOeNg.s:169    .rodata:00000230 UnityStrResultsTests
C:\Users\Piotrek\AppData\Local\Temp\cc9LOeNg.s:174    .rodata:00000238 UnityStrResultsFailures
C:\Users\Piotrek\AppData\Local\Temp\cc9LOeNg.s:179    .rodata:00000244 UnityStrResultsIgnored
C:\Users\Piotrek\AppData\Local\Temp\cc9LOeNg.s:184    .rodata:00000250 UnityStrDetail1Name
C:\Users\Piotrek\AppData\Local\Temp\cc9LOeNg.s:189    .rodata:0000025c UnityStrDetail2Name
C:\Users\Piotrek\AppData\Local\Temp\cc9LOeNg.s:197    .text:00000000 UnityPrintChar
C:\Users\Piotrek\AppData\Local\Temp\cc9LOeNg.s:878    .text:00000738 UnityPrintNumberHex
C:\Users\Piotrek\AppData\Local\Temp\cc9LOeNg.s:324    .text:00000160 UnityPrint
C:\Users\Piotrek\AppData\Local\Temp\cc9LOeNg.s:379    .text:000001d0 UnityPrintLen
C:\Users\Piotrek\AppData\Local\Temp\cc9LOeNg.s:536    .text:0000038c UnityPrintNumberByStyle
C:\Users\Piotrek\AppData\Local\Temp\cc9LOeNg.s:734    .text:000005c4 UnityPrintNumber
C:\Users\Piotrek\AppData\Local\Temp\cc9LOeNg.s:786    .text:00000634 UnityPrintNumberUnsigned
C:\Users\Piotrek\AppData\Local\Temp\cc9LOeNg.s:977    .text:00000844 UnityPrintMask
C:\Users\Piotrek\AppData\Local\Temp\cc9LOeNg.s:1081   .text:00000930 UnityPrintFloat
C:\Users\Piotrek\AppData\Local\Temp\cc9LOeNg.s:1758   .text:00001208 UnityTestResultsBegin
C:\Users\Piotrek\AppData\Local\Temp\cc9LOeNg.s:1824   .text:000012ac UnityTestResultsFailBegin
C:\Users\Piotrek\AppData\Local\Temp\cc9LOeNg.s:1873   .text:00001314 UnityConcludeTest
C:\Users\Piotrek\AppData\Local\Temp\cc9LOeNg.s:1946   .text:000013c4 UnityAddMsgIfSpecified
C:\Users\Piotrek\AppData\Local\Temp\cc9LOeNg.s:2025   .text:00001480 UnityPrintExpectedAndActualStrings
C:\Users\Piotrek\AppData\Local\Temp\cc9LOeNg.s:2130   .text:00001590 UnityPrintExpectedAndActualStringsLen
C:\Users\Piotrek\AppData\Local\Temp\cc9LOeNg.s:2238   .text:000016ac UnityIsOneArrayNull
C:\Users\Piotrek\AppData\Local\Temp\cc9LOeNg.s:2328   .text:00001784 UnityAssertBits
C:\Users\Piotrek\AppData\Local\Temp\cc9LOeNg.s:2425   .text:00001880 UnityAssertEqualNumber
C:\Users\Piotrek\AppData\Local\Temp\cc9LOeNg.s:2515   .text:00001960 UnityAssertGreaterOrLessOrEqualNumber
GAS LISTING C:\Users\Piotrek\AppData\Local\Temp\cc9LOeNg.s 			page 105


C:\Users\Piotrek\AppData\Local\Temp\cc9LOeNg.s:2729   .text:00001bb4 UnityAssertEqualIntArray
C:\Users\Piotrek\AppData\Local\Temp\cc9LOeNg.s:2995   .text:00001ecc UnityFloatsWithin
C:\Users\Piotrek\AppData\Local\Temp\cc9LOeNg.s:3227   .text:0000219c UnityAssertEqualFloatArray
C:\Users\Piotrek\AppData\Local\Temp\cc9LOeNg.s:3430   .text:000023e4 UnityAssertFloatsWithin
C:\Users\Piotrek\AppData\Local\Temp\cc9LOeNg.s:3522   .text:000024c8 UnityAssertFloatSpecial
C:\Users\Piotrek\AppData\Local\Temp\cc9LOeNg.s:3834   .text:0000287c UnityAssertNumbersWithin
C:\Users\Piotrek\AppData\Local\Temp\cc9LOeNg.s:3992   .text:00002a3c UnityAssertNumbersArrayWithin
C:\Users\Piotrek\AppData\Local\Temp\cc9LOeNg.s:4327   .text:00002e34 UnityAssertEqualString
C:\Users\Piotrek\AppData\Local\Temp\cc9LOeNg.s:4462   .text:00002f98 UnityAssertEqualStringLen
C:\Users\Piotrek\AppData\Local\Temp\cc9LOeNg.s:4604   .text:00003114 UnityAssertEqualStringArray
C:\Users\Piotrek\AppData\Local\Temp\cc9LOeNg.s:4846   .text:000033c8 UnityAssertEqualMemory
C:\Users\Piotrek\AppData\Local\Temp\cc9LOeNg.s:5077   .sbss:00000000 UnityQuickCompare
C:\Users\Piotrek\AppData\Local\Temp\cc9LOeNg.s:5086   .text:00003664 UnityNumToPtr
C:\Users\Piotrek\AppData\Local\Temp\cc9LOeNg.s:5150   .text:000036f0 UnityFloatToPtr
C:\Users\Piotrek\AppData\Local\Temp\cc9LOeNg.s:5182   .text:00003720 UnityFail
C:\Users\Piotrek\AppData\Local\Temp\cc9LOeNg.s:5305   .text:00003860 UnityIgnore
C:\Users\Piotrek\AppData\Local\Temp\cc9LOeNg.s:5391   .text:00003924 UnityMessage
C:\Users\Piotrek\AppData\Local\Temp\cc9LOeNg.s:5464   .text:000039d8 UnityDefaultTestRun
C:\Users\Piotrek\AppData\Local\Temp\cc9LOeNg.s:5535   .text:00003a7c UnitySetTestFile
C:\Users\Piotrek\AppData\Local\Temp\cc9LOeNg.s:5566   .text:00003aa8 UnityBegin
C:\Users\Piotrek\AppData\Local\Temp\cc9LOeNg.s:5606   .text:00003af8 UnityEnd
C:\Users\Piotrek\AppData\Local\Temp\cc9LOeNg.s:5721   .rodata:0000027c max_scaled.3141
C:\Users\Piotrek\AppData\Local\Temp\cc9LOeNg.s:5726   .rodata:00000280 min_scaled.3140
C:\Users\Piotrek\AppData\Local\Temp\cc9LOeNg.s:5731   .rodata:00000284 sig_digits.3139

UNDEFINED SYMBOLS
_libc_data
fputc
longjmp
setjmp
setUp
tearDown
UnityHelperDeadLoop
